

Microchip MPLAB XC8 Assembler V2.46 build 20240104201356 
                                                                                               Tue Feb 10 13:36:46 2026

Microchip MPLAB XC8 C Compiler v2.46 (Free license) build 20240104201356 Og1 
     1                           	processor	16F1936
     2                           	pagewidth 120
     3                           	opt	flic
     4                           	psect	idataBANK0,global,class=CODE,delta=2,noexec
     5                           	psect	stringtext1,global,class=STRCODE,delta=2,noexec
     6                           	psect	stringtext2,global,class=STRCODE,delta=2,noexec
     7                           	psect	stringtext3,global,class=STRCODE,delta=2,noexec
     8                           	psect	stringtext4,global,class=STRCODE,delta=2,noexec
     9                           	psect	stringtext5,global,class=STRCODE,delta=2,noexec
    10                           	psect	stringtext6,global,class=STRCODE,delta=2,noexec
    11                           	psect	stringtext7,global,class=STRCODE,delta=2,noexec
    12                           	psect	stringtext8,global,class=STRCODE,delta=2,noexec
    13                           	psect	stringtext9,global,class=STRCODE,delta=2,noexec
    14                           	psect	cinit,global,class=CODE,merge=1,delta=2
    15                           	psect	bssCOMMON,global,class=COMMON,space=1,delta=1,noexec
    16                           	psect	bssBANK0,global,class=BANK0,space=1,delta=1,noexec
    17                           	psect	dataBANK0,global,class=BANK0,space=1,delta=1,noexec
    18                           	psect	clrtext,global,class=CODE,delta=2
    19                           	psect	cstackCOMMON,global,class=COMMON,space=1,delta=1,noexec
    20                           	psect	cstackBANK0,global,class=BANK0,space=1,delta=1,noexec
    21                           	psect	maintext,global,class=CODE,merge=1,split=1,delta=2
    22                           	psect	text1,local,class=CODE,merge=1,delta=2
    23                           	psect	text2,local,class=CODE,merge=1,delta=2
    24                           	psect	text3,local,class=CODE,merge=1,delta=2
    25                           	psect	text4,local,class=CODE,merge=1,delta=2
    26                           	psect	text5,local,class=CODE,merge=1,delta=2
    27                           	psect	text6,local,class=CODE,merge=1,delta=2
    28                           	psect	text7,local,class=CODE,merge=1,delta=2
    29                           	psect	text8,local,class=CODE,merge=1,delta=2
    30                           	psect	text9,local,class=CODE,merge=1,delta=2
    31                           	psect	text10,local,class=CODE,merge=1,delta=2
    32                           	psect	text11,local,class=CODE,merge=1,delta=2
    33                           	psect	text12,local,class=CODE,merge=1,delta=2
    34                           	psect	text13,local,class=CODE,merge=1,delta=2
    35                           	psect	text14,local,class=CODE,merge=1,delta=2
    36                           	psect	text15,local,class=CODE,merge=1,delta=2
    37                           	psect	text16,local,class=CODE,merge=1,delta=2
    38                           	psect	text17,local,class=CODE,merge=1,delta=2
    39                           	psect	text18,local,class=CODE,merge=1,delta=2
    40                           	psect	text19,local,class=CODE,merge=1,delta=2
    41                           	psect	text20,local,class=CODE,merge=1,delta=2
    42                           	psect	text21,local,class=CODE,merge=1,delta=2
    43                           	psect	text22,local,class=CODE,merge=1,delta=2
    44                           	psect	text23,local,class=CODE,merge=1,delta=2
    45                           	psect	text24,local,class=CODE,merge=1,delta=2
    46                           	psect	text25,local,class=CODE,merge=1,delta=2
    47                           	psect	text26,local,class=CODE,merge=1,delta=2
    48                           	psect	text27,local,class=CODE,merge=1,delta=2
    49                           	psect	text28,local,class=CODE,merge=1,delta=2
    50                           	psect	text29,local,class=CODE,merge=1,delta=2
    51                           	psect	text30,local,class=CODE,merge=1,delta=2
    52                           	psect	text31,local,class=CODE,merge=1,delta=2
    53                           	psect	text32,local,class=CODE,merge=1,delta=2
    54                           	psect	text33,local,class=CODE,merge=1,delta=2
    55                           	psect	text34,local,class=CODE,merge=1,delta=2
    56                           	psect	text35,local,class=CODE,merge=1,delta=2
    57                           	psect	text36,local,class=CODE,merge=1,delta=2
    58                           	psect	text37,local,class=CODE,merge=1,delta=2
    59                           	psect	text38,local,class=CODE,merge=1,delta=2
    60                           	psect	text39,local,class=CODE,merge=1,delta=2
    61                           	psect	text40,local,class=CODE,merge=1,delta=2
    62                           	psect	text41,local,class=CODE,merge=1,delta=2
    63                           	psect	text42,local,class=CODE,merge=1,delta=2
    64                           	psect	text43,local,class=CODE,merge=1,delta=2
    65                           	psect	text44,local,class=CODE,merge=1,delta=2
    66                           	psect	text45,local,class=CODE,merge=1,delta=2
    67                           	psect	text46,local,class=CODE,merge=1,delta=2
    68                           	psect	text47,local,class=CODE,merge=1,delta=2
    69                           	psect	text48,local,class=CODE,merge=1,delta=2
    70                           	psect	text49,local,class=CODE,merge=1,delta=2
    71                           	psect	text50,local,class=CODE,merge=1,delta=2
    72                           	psect	text51,local,class=CODE,merge=1,delta=2
    73                           	psect	text52,local,class=CODE,merge=1,delta=2
    74                           	psect	text53,local,class=CODE,merge=1,delta=2
    75                           	psect	text54,local,class=CODE,merge=1,delta=2
    76                           	psect	intentry,global,class=CODE,delta=2
    77                           	psect	text56,local,class=CODE,merge=1,delta=2
    78                           	psect	text57,local,class=CODE,merge=1,delta=2
    79                           	psect	text58,local,class=CODE,merge=1,delta=2
    80                           	psect	text59,local,class=CODE,merge=1,delta=2
    81                           	psect	text60,local,class=CODE,merge=1,delta=2
    82                           	psect	text61,local,class=CODE,merge=1,delta=2
    83                           	psect	config,global,abs,ovrld,class=CONFIG,space=4,delta=2,noexec
    84                           	dabs	1,0x7E,2
    85     0000                     
    86                           ; Version 2.20
    87                           ; Generated 12/02/2020 GMT
    88                           ; 
    89                           ; Copyright © 2020, Microchip Technology Inc. and its subsidiaries ("Microchip")
    90                           ; All rights reserved.
    91                           ; 
    92                           ; This software is developed by Microchip Technology Inc. and its subsidiaries ("Microch
      +                          ip").
    93                           ; 
    94                           ; Redistribution and use in source and binary forms, with or without modification, are
    95                           ; permitted provided that the following conditions are met:
    96                           ; 
    97                           ;     1. Redistributions of source code must retain the above copyright notice, this lis
      +                          t of
    98                           ;        conditions and the following disclaimer.
    99                           ; 
   100                           ;     2. Redistributions in binary form must reproduce the above copyright notice, this 
      +                          list
   101                           ;        of conditions and the following disclaimer in the documentation and/or other
   102                           ;        materials provided with the distribution.
   103                           ; 
   104                           ;     3. Microchip's name may not be used to endorse or promote products derived from th
      +                          is
   105                           ;        software without specific prior written permission.
   106                           ; 
   107                           ; THIS SOFTWARE IS PROVIDED BY MICROCHIP "AS IS" AND ANY EXPRESS OR IMPLIED WARRANTIES,
   108                           ; INCLUDING, BUT NOT LIMITED TO, THE IMPLIED WARRANTIES OF MERCHANTABILITY AND FITNESS F
      +                          OR
   109                           ; PURPOSE ARE DISCLAIMED.  IN NO EVENT SHALL MICROCHIP BE LIABLE FOR ANY DIRECT, INDIREC
      +                          T,
   110                           ; INCIDENTAL, SPECIAL, EXEMPLARY, OR CONSEQUENTIAL DAMAGES (INCLUDING BUT NOT LIMITED TO
   111                           ; PROCUREMENT OF SUBSTITUTE GOODS OR SERVICES; LOSS OF USE, DATA OR PROFITS; OR BUSINESS
   112                           ; INTERRUPTION) HOWSOEVER CAUSED AND ON ANY THEORY OF LIABILITY, WHETHER IN CONTRACT, ST
      +                          RICT
   113                           ; LIABILITY, OR TORT (INCLUDING NEGLIGENCE OR OTHERWISE) ARISING IN ANY WAY OUT OF THE U
      +                          SE OF
   114                           ; THIS SOFTWARE, EVEN IF ADVISED OF THE POSSIBILITY OF SUCH DAMAGE.
   115                           ; 
   116                           ; 
   117                           ; Code-generator required, PIC16F1936 Definitions
   118                           ; 
   119                           ; SFR Addresses
   120     0000                     	;# 
   121     0001                     	;# 
   122     0002                     	;# 
   123     0003                     	;# 
   124     0004                     	;# 
   125     0005                     	;# 
   126     0006                     	;# 
   127     0007                     	;# 
   128     0008                     	;# 
   129     0009                     	;# 
   130     000A                     	;# 
   131     000B                     	;# 
   132     000C                     	;# 
   133     000D                     	;# 
   134     000E                     	;# 
   135     0010                     	;# 
   136     0011                     	;# 
   137     0012                     	;# 
   138     0013                     	;# 
   139     0015                     	;# 
   140     0016                     	;# 
   141     0016                     	;# 
   142     0017                     	;# 
   143     0018                     	;# 
   144     0019                     	;# 
   145     001A                     	;# 
   146     001B                     	;# 
   147     001C                     	;# 
   148     001E                     	;# 
   149     001F                     	;# 
   150     008C                     	;# 
   151     008D                     	;# 
   152     008E                     	;# 
   153     0090                     	;# 
   154     0091                     	;# 
   155     0092                     	;# 
   156     0093                     	;# 
   157     0095                     	;# 
   158     0096                     	;# 
   159     0097                     	;# 
   160     0098                     	;# 
   161     0099                     	;# 
   162     009A                     	;# 
   163     009B                     	;# 
   164     009B                     	;# 
   165     009C                     	;# 
   166     009D                     	;# 
   167     009E                     	;# 
   168     010C                     	;# 
   169     010D                     	;# 
   170     010E                     	;# 
   171     0110                     	;# 
   172     0111                     	;# 
   173     0112                     	;# 
   174     0113                     	;# 
   175     0114                     	;# 
   176     0115                     	;# 
   177     0116                     	;# 
   178     0117                     	;# 
   179     0118                     	;# 
   180     0119                     	;# 
   181     011A                     	;# 
   182     011B                     	;# 
   183     011D                     	;# 
   184     018C                     	;# 
   185     018D                     	;# 
   186     0191                     	;# 
   187     0191                     	;# 
   188     0192                     	;# 
   189     0193                     	;# 
   190     0193                     	;# 
   191     0193                     	;# 
   192     0194                     	;# 
   193     0195                     	;# 
   194     0196                     	;# 
   195     0199                     	;# 
   196     019A                     	;# 
   197     019B                     	;# 
   198     019B                     	;# 
   199     019B                     	;# 
   200     019B                     	;# 
   201     019C                     	;# 
   202     019C                     	;# 
   203     019D                     	;# 
   204     019E                     	;# 
   205     019F                     	;# 
   206     020D                     	;# 
   207     0210                     	;# 
   208     0211                     	;# 
   209     0212                     	;# 
   210     0213                     	;# 
   211     0214                     	;# 
   212     0215                     	;# 
   213     0215                     	;# 
   214     0216                     	;# 
   215     0217                     	;# 
   216     0291                     	;# 
   217     0291                     	;# 
   218     0292                     	;# 
   219     0293                     	;# 
   220     0294                     	;# 
   221     0295                     	;# 
   222     0295                     	;# 
   223     0296                     	;# 
   224     0298                     	;# 
   225     0298                     	;# 
   226     0299                     	;# 
   227     029A                     	;# 
   228     029B                     	;# 
   229     029C                     	;# 
   230     029C                     	;# 
   231     029D                     	;# 
   232     029E                     	;# 
   233     029F                     	;# 
   234     0311                     	;# 
   235     0311                     	;# 
   236     0312                     	;# 
   237     0313                     	;# 
   238     0314                     	;# 
   239     0315                     	;# 
   240     0315                     	;# 
   241     0316                     	;# 
   242     0318                     	;# 
   243     0318                     	;# 
   244     0319                     	;# 
   245     031A                     	;# 
   246     031C                     	;# 
   247     031C                     	;# 
   248     031D                     	;# 
   249     031E                     	;# 
   250     0394                     	;# 
   251     0395                     	;# 
   252     0396                     	;# 
   253     0415                     	;# 
   254     0416                     	;# 
   255     0417                     	;# 
   256     041C                     	;# 
   257     041D                     	;# 
   258     041E                     	;# 
   259     0791                     	;# 
   260     0792                     	;# 
   261     0793                     	;# 
   262     0794                     	;# 
   263     0795                     	;# 
   264     0798                     	;# 
   265     0799                     	;# 
   266     07A0                     	;# 
   267     07A1                     	;# 
   268     07A3                     	;# 
   269     07A4                     	;# 
   270     07A6                     	;# 
   271     07A7                     	;# 
   272     07A9                     	;# 
   273     07AA                     	;# 
   274     0FE4                     	;# 
   275     0FE5                     	;# 
   276     0FE6                     	;# 
   277     0FE7                     	;# 
   278     0FE8                     	;# 
   279     0FE9                     	;# 
   280     0FEA                     	;# 
   281     0FEB                     	;# 
   282     0FED                     	;# 
   283     0FEE                     	;# 
   284     0FEF                     	;# 
   285     0000                     	;# 
   286     0001                     	;# 
   287     0002                     	;# 
   288     0003                     	;# 
   289     0004                     	;# 
   290     0005                     	;# 
   291     0006                     	;# 
   292     0007                     	;# 
   293     0008                     	;# 
   294     0009                     	;# 
   295     000A                     	;# 
   296     000B                     	;# 
   297     000C                     	;# 
   298     000D                     	;# 
   299     000E                     	;# 
   300     0010                     	;# 
   301     0011                     	;# 
   302     0012                     	;# 
   303     0013                     	;# 
   304     0015                     	;# 
   305     0016                     	;# 
   306     0016                     	;# 
   307     0017                     	;# 
   308     0018                     	;# 
   309     0019                     	;# 
   310     001A                     	;# 
   311     001B                     	;# 
   312     001C                     	;# 
   313     001E                     	;# 
   314     001F                     	;# 
   315     008C                     	;# 
   316     008D                     	;# 
   317     008E                     	;# 
   318     0090                     	;# 
   319     0091                     	;# 
   320     0092                     	;# 
   321     0093                     	;# 
   322     0095                     	;# 
   323     0096                     	;# 
   324     0097                     	;# 
   325     0098                     	;# 
   326     0099                     	;# 
   327     009A                     	;# 
   328     009B                     	;# 
   329     009B                     	;# 
   330     009C                     	;# 
   331     009D                     	;# 
   332     009E                     	;# 
   333     010C                     	;# 
   334     010D                     	;# 
   335     010E                     	;# 
   336     0110                     	;# 
   337     0111                     	;# 
   338     0112                     	;# 
   339     0113                     	;# 
   340     0114                     	;# 
   341     0115                     	;# 
   342     0116                     	;# 
   343     0117                     	;# 
   344     0118                     	;# 
   345     0119                     	;# 
   346     011A                     	;# 
   347     011B                     	;# 
   348     011D                     	;# 
   349     018C                     	;# 
   350     018D                     	;# 
   351     0191                     	;# 
   352     0191                     	;# 
   353     0192                     	;# 
   354     0193                     	;# 
   355     0193                     	;# 
   356     0193                     	;# 
   357     0194                     	;# 
   358     0195                     	;# 
   359     0196                     	;# 
   360     0199                     	;# 
   361     019A                     	;# 
   362     019B                     	;# 
   363     019B                     	;# 
   364     019B                     	;# 
   365     019B                     	;# 
   366     019C                     	;# 
   367     019C                     	;# 
   368     019D                     	;# 
   369     019E                     	;# 
   370     019F                     	;# 
   371     020D                     	;# 
   372     0210                     	;# 
   373     0211                     	;# 
   374     0212                     	;# 
   375     0213                     	;# 
   376     0214                     	;# 
   377     0215                     	;# 
   378     0215                     	;# 
   379     0216                     	;# 
   380     0217                     	;# 
   381     0291                     	;# 
   382     0291                     	;# 
   383     0292                     	;# 
   384     0293                     	;# 
   385     0294                     	;# 
   386     0295                     	;# 
   387     0295                     	;# 
   388     0296                     	;# 
   389     0298                     	;# 
   390     0298                     	;# 
   391     0299                     	;# 
   392     029A                     	;# 
   393     029B                     	;# 
   394     029C                     	;# 
   395     029C                     	;# 
   396     029D                     	;# 
   397     029E                     	;# 
   398     029F                     	;# 
   399     0311                     	;# 
   400     0311                     	;# 
   401     0312                     	;# 
   402     0313                     	;# 
   403     0314                     	;# 
   404     0315                     	;# 
   405     0315                     	;# 
   406     0316                     	;# 
   407     0318                     	;# 
   408     0318                     	;# 
   409     0319                     	;# 
   410     031A                     	;# 
   411     031C                     	;# 
   412     031C                     	;# 
   413     031D                     	;# 
   414     031E                     	;# 
   415     0394                     	;# 
   416     0395                     	;# 
   417     0396                     	;# 
   418     0415                     	;# 
   419     0416                     	;# 
   420     0417                     	;# 
   421     041C                     	;# 
   422     041D                     	;# 
   423     041E                     	;# 
   424     0791                     	;# 
   425     0792                     	;# 
   426     0793                     	;# 
   427     0794                     	;# 
   428     0795                     	;# 
   429     0798                     	;# 
   430     0799                     	;# 
   431     07A0                     	;# 
   432     07A1                     	;# 
   433     07A3                     	;# 
   434     07A4                     	;# 
   435     07A6                     	;# 
   436     07A7                     	;# 
   437     07A9                     	;# 
   438     07AA                     	;# 
   439     0FE4                     	;# 
   440     0FE5                     	;# 
   441     0FE6                     	;# 
   442     0FE7                     	;# 
   443     0FE8                     	;# 
   444     0FE9                     	;# 
   445     0FEA                     	;# 
   446     0FEB                     	;# 
   447     0FED                     	;# 
   448     0FEE                     	;# 
   449     0FEF                     	;# 
   450     0000                     	;# 
   451     0001                     	;# 
   452     0002                     	;# 
   453     0003                     	;# 
   454     0004                     	;# 
   455     0005                     	;# 
   456     0006                     	;# 
   457     0007                     	;# 
   458     0008                     	;# 
   459     0009                     	;# 
   460     000A                     	;# 
   461     000B                     	;# 
   462     000C                     	;# 
   463     000D                     	;# 
   464     000E                     	;# 
   465     0010                     	;# 
   466     0011                     	;# 
   467     0012                     	;# 
   468     0013                     	;# 
   469     0015                     	;# 
   470     0016                     	;# 
   471     0016                     	;# 
   472     0017                     	;# 
   473     0018                     	;# 
   474     0019                     	;# 
   475     001A                     	;# 
   476     001B                     	;# 
   477     001C                     	;# 
   478     001E                     	;# 
   479     001F                     	;# 
   480     008C                     	;# 
   481     008D                     	;# 
   482     008E                     	;# 
   483     0090                     	;# 
   484     0091                     	;# 
   485     0092                     	;# 
   486     0093                     	;# 
   487     0095                     	;# 
   488     0096                     	;# 
   489     0097                     	;# 
   490     0098                     	;# 
   491     0099                     	;# 
   492     009A                     	;# 
   493     009B                     	;# 
   494     009B                     	;# 
   495     009C                     	;# 
   496     009D                     	;# 
   497     009E                     	;# 
   498     010C                     	;# 
   499     010D                     	;# 
   500     010E                     	;# 
   501     0110                     	;# 
   502     0111                     	;# 
   503     0112                     	;# 
   504     0113                     	;# 
   505     0114                     	;# 
   506     0115                     	;# 
   507     0116                     	;# 
   508     0117                     	;# 
   509     0118                     	;# 
   510     0119                     	;# 
   511     011A                     	;# 
   512     011B                     	;# 
   513     011D                     	;# 
   514     018C                     	;# 
   515     018D                     	;# 
   516     0191                     	;# 
   517     0191                     	;# 
   518     0192                     	;# 
   519     0193                     	;# 
   520     0193                     	;# 
   521     0193                     	;# 
   522     0194                     	;# 
   523     0195                     	;# 
   524     0196                     	;# 
   525     0199                     	;# 
   526     019A                     	;# 
   527     019B                     	;# 
   528     019B                     	;# 
   529     019B                     	;# 
   530     019B                     	;# 
   531     019C                     	;# 
   532     019C                     	;# 
   533     019D                     	;# 
   534     019E                     	;# 
   535     019F                     	;# 
   536     020D                     	;# 
   537     0210                     	;# 
   538     0211                     	;# 
   539     0212                     	;# 
   540     0213                     	;# 
   541     0214                     	;# 
   542     0215                     	;# 
   543     0215                     	;# 
   544     0216                     	;# 
   545     0217                     	;# 
   546     0291                     	;# 
   547     0291                     	;# 
   548     0292                     	;# 
   549     0293                     	;# 
   550     0294                     	;# 
   551     0295                     	;# 
   552     0295                     	;# 
   553     0296                     	;# 
   554     0298                     	;# 
   555     0298                     	;# 
   556     0299                     	;# 
   557     029A                     	;# 
   558     029B                     	;# 
   559     029C                     	;# 
   560     029C                     	;# 
   561     029D                     	;# 
   562     029E                     	;# 
   563     029F                     	;# 
   564     0311                     	;# 
   565     0311                     	;# 
   566     0312                     	;# 
   567     0313                     	;# 
   568     0314                     	;# 
   569     0315                     	;# 
   570     0315                     	;# 
   571     0316                     	;# 
   572     0318                     	;# 
   573     0318                     	;# 
   574     0319                     	;# 
   575     031A                     	;# 
   576     031C                     	;# 
   577     031C                     	;# 
   578     031D                     	;# 
   579     031E                     	;# 
   580     0394                     	;# 
   581     0395                     	;# 
   582     0396                     	;# 
   583     0415                     	;# 
   584     0416                     	;# 
   585     0417                     	;# 
   586     041C                     	;# 
   587     041D                     	;# 
   588     041E                     	;# 
   589     0791                     	;# 
   590     0792                     	;# 
   591     0793                     	;# 
   592     0794                     	;# 
   593     0795                     	;# 
   594     0798                     	;# 
   595     0799                     	;# 
   596     07A0                     	;# 
   597     07A1                     	;# 
   598     07A3                     	;# 
   599     07A4                     	;# 
   600     07A6                     	;# 
   601     07A7                     	;# 
   602     07A9                     	;# 
   603     07AA                     	;# 
   604     0FE4                     	;# 
   605     0FE5                     	;# 
   606     0FE6                     	;# 
   607     0FE7                     	;# 
   608     0FE8                     	;# 
   609     0FE9                     	;# 
   610     0FEA                     	;# 
   611     0FEB                     	;# 
   612     0FED                     	;# 
   613     0FEE                     	;# 
   614     0FEF                     	;# 
   615     0000                     	;# 
   616     0001                     	;# 
   617     0002                     	;# 
   618     0003                     	;# 
   619     0004                     	;# 
   620     0005                     	;# 
   621     0006                     	;# 
   622     0007                     	;# 
   623     0008                     	;# 
   624     0009                     	;# 
   625     000A                     	;# 
   626     000B                     	;# 
   627     000C                     	;# 
   628     000D                     	;# 
   629     000E                     	;# 
   630     0010                     	;# 
   631     0011                     	;# 
   632     0012                     	;# 
   633     0013                     	;# 
   634     0015                     	;# 
   635     0016                     	;# 
   636     0016                     	;# 
   637     0017                     	;# 
   638     0018                     	;# 
   639     0019                     	;# 
   640     001A                     	;# 
   641     001B                     	;# 
   642     001C                     	;# 
   643     001E                     	;# 
   644     001F                     	;# 
   645     008C                     	;# 
   646     008D                     	;# 
   647     008E                     	;# 
   648     0090                     	;# 
   649     0091                     	;# 
   650     0092                     	;# 
   651     0093                     	;# 
   652     0095                     	;# 
   653     0096                     	;# 
   654     0097                     	;# 
   655     0098                     	;# 
   656     0099                     	;# 
   657     009A                     	;# 
   658     009B                     	;# 
   659     009B                     	;# 
   660     009C                     	;# 
   661     009D                     	;# 
   662     009E                     	;# 
   663     010C                     	;# 
   664     010D                     	;# 
   665     010E                     	;# 
   666     0110                     	;# 
   667     0111                     	;# 
   668     0112                     	;# 
   669     0113                     	;# 
   670     0114                     	;# 
   671     0115                     	;# 
   672     0116                     	;# 
   673     0117                     	;# 
   674     0118                     	;# 
   675     0119                     	;# 
   676     011A                     	;# 
   677     011B                     	;# 
   678     011D                     	;# 
   679     018C                     	;# 
   680     018D                     	;# 
   681     0191                     	;# 
   682     0191                     	;# 
   683     0192                     	;# 
   684     0193                     	;# 
   685     0193                     	;# 
   686     0193                     	;# 
   687     0194                     	;# 
   688     0195                     	;# 
   689     0196                     	;# 
   690     0199                     	;# 
   691     019A                     	;# 
   692     019B                     	;# 
   693     019B                     	;# 
   694     019B                     	;# 
   695     019B                     	;# 
   696     019C                     	;# 
   697     019C                     	;# 
   698     019D                     	;# 
   699     019E                     	;# 
   700     019F                     	;# 
   701     020D                     	;# 
   702     0210                     	;# 
   703     0211                     	;# 
   704     0212                     	;# 
   705     0213                     	;# 
   706     0214                     	;# 
   707     0215                     	;# 
   708     0215                     	;# 
   709     0216                     	;# 
   710     0217                     	;# 
   711     0291                     	;# 
   712     0291                     	;# 
   713     0292                     	;# 
   714     0293                     	;# 
   715     0294                     	;# 
   716     0295                     	;# 
   717     0295                     	;# 
   718     0296                     	;# 
   719     0298                     	;# 
   720     0298                     	;# 
   721     0299                     	;# 
   722     029A                     	;# 
   723     029B                     	;# 
   724     029C                     	;# 
   725     029C                     	;# 
   726     029D                     	;# 
   727     029E                     	;# 
   728     029F                     	;# 
   729     0311                     	;# 
   730     0311                     	;# 
   731     0312                     	;# 
   732     0313                     	;# 
   733     0314                     	;# 
   734     0315                     	;# 
   735     0315                     	;# 
   736     0316                     	;# 
   737     0318                     	;# 
   738     0318                     	;# 
   739     0319                     	;# 
   740     031A                     	;# 
   741     031C                     	;# 
   742     031C                     	;# 
   743     031D                     	;# 
   744     031E                     	;# 
   745     0394                     	;# 
   746     0395                     	;# 
   747     0396                     	;# 
   748     0415                     	;# 
   749     0416                     	;# 
   750     0417                     	;# 
   751     041C                     	;# 
   752     041D                     	;# 
   753     041E                     	;# 
   754     0791                     	;# 
   755     0792                     	;# 
   756     0793                     	;# 
   757     0794                     	;# 
   758     0795                     	;# 
   759     0798                     	;# 
   760     0799                     	;# 
   761     07A0                     	;# 
   762     07A1                     	;# 
   763     07A3                     	;# 
   764     07A4                     	;# 
   765     07A6                     	;# 
   766     07A7                     	;# 
   767     07A9                     	;# 
   768     07AA                     	;# 
   769     0FE4                     	;# 
   770     0FE5                     	;# 
   771     0FE6                     	;# 
   772     0FE7                     	;# 
   773     0FE8                     	;# 
   774     0FE9                     	;# 
   775     0FEA                     	;# 
   776     0FEB                     	;# 
   777     0FED                     	;# 
   778     0FEE                     	;# 
   779     0FEF                     	;# 
   780     0000                     	;# 
   781     0001                     	;# 
   782     0002                     	;# 
   783     0003                     	;# 
   784     0004                     	;# 
   785     0005                     	;# 
   786     0006                     	;# 
   787     0007                     	;# 
   788     0008                     	;# 
   789     0009                     	;# 
   790     000A                     	;# 
   791     000B                     	;# 
   792     000C                     	;# 
   793     000D                     	;# 
   794     000E                     	;# 
   795     0010                     	;# 
   796     0011                     	;# 
   797     0012                     	;# 
   798     0013                     	;# 
   799     0015                     	;# 
   800     0016                     	;# 
   801     0016                     	;# 
   802     0017                     	;# 
   803     0018                     	;# 
   804     0019                     	;# 
   805     001A                     	;# 
   806     001B                     	;# 
   807     001C                     	;# 
   808     001E                     	;# 
   809     001F                     	;# 
   810     008C                     	;# 
   811     008D                     	;# 
   812     008E                     	;# 
   813     0090                     	;# 
   814     0091                     	;# 
   815     0092                     	;# 
   816     0093                     	;# 
   817     0095                     	;# 
   818     0096                     	;# 
   819     0097                     	;# 
   820     0098                     	;# 
   821     0099                     	;# 
   822     009A                     	;# 
   823     009B                     	;# 
   824     009B                     	;# 
   825     009C                     	;# 
   826     009D                     	;# 
   827     009E                     	;# 
   828     010C                     	;# 
   829     010D                     	;# 
   830     010E                     	;# 
   831     0110                     	;# 
   832     0111                     	;# 
   833     0112                     	;# 
   834     0113                     	;# 
   835     0114                     	;# 
   836     0115                     	;# 
   837     0116                     	;# 
   838     0117                     	;# 
   839     0118                     	;# 
   840     0119                     	;# 
   841     011A                     	;# 
   842     011B                     	;# 
   843     011D                     	;# 
   844     018C                     	;# 
   845     018D                     	;# 
   846     0191                     	;# 
   847     0191                     	;# 
   848     0192                     	;# 
   849     0193                     	;# 
   850     0193                     	;# 
   851     0193                     	;# 
   852     0194                     	;# 
   853     0195                     	;# 
   854     0196                     	;# 
   855     0199                     	;# 
   856     019A                     	;# 
   857     019B                     	;# 
   858     019B                     	;# 
   859     019B                     	;# 
   860     019B                     	;# 
   861     019C                     	;# 
   862     019C                     	;# 
   863     019D                     	;# 
   864     019E                     	;# 
   865     019F                     	;# 
   866     020D                     	;# 
   867     0210                     	;# 
   868     0211                     	;# 
   869     0212                     	;# 
   870     0213                     	;# 
   871     0214                     	;# 
   872     0215                     	;# 
   873     0215                     	;# 
   874     0216                     	;# 
   875     0217                     	;# 
   876     0291                     	;# 
   877     0291                     	;# 
   878     0292                     	;# 
   879     0293                     	;# 
   880     0294                     	;# 
   881     0295                     	;# 
   882     0295                     	;# 
   883     0296                     	;# 
   884     0298                     	;# 
   885     0298                     	;# 
   886     0299                     	;# 
   887     029A                     	;# 
   888     029B                     	;# 
   889     029C                     	;# 
   890     029C                     	;# 
   891     029D                     	;# 
   892     029E                     	;# 
   893     029F                     	;# 
   894     0311                     	;# 
   895     0311                     	;# 
   896     0312                     	;# 
   897     0313                     	;# 
   898     0314                     	;# 
   899     0315                     	;# 
   900     0315                     	;# 
   901     0316                     	;# 
   902     0318                     	;# 
   903     0318                     	;# 
   904     0319                     	;# 
   905     031A                     	;# 
   906     031C                     	;# 
   907     031C                     	;# 
   908     031D                     	;# 
   909     031E                     	;# 
   910     0394                     	;# 
   911     0395                     	;# 
   912     0396                     	;# 
   913     0415                     	;# 
   914     0416                     	;# 
   915     0417                     	;# 
   916     041C                     	;# 
   917     041D                     	;# 
   918     041E                     	;# 
   919     0791                     	;# 
   920     0792                     	;# 
   921     0793                     	;# 
   922     0794                     	;# 
   923     0795                     	;# 
   924     0798                     	;# 
   925     0799                     	;# 
   926     07A0                     	;# 
   927     07A1                     	;# 
   928     07A3                     	;# 
   929     07A4                     	;# 
   930     07A6                     	;# 
   931     07A7                     	;# 
   932     07A9                     	;# 
   933     07AA                     	;# 
   934     0FE4                     	;# 
   935     0FE5                     	;# 
   936     0FE6                     	;# 
   937     0FE7                     	;# 
   938     0FE8                     	;# 
   939     0FE9                     	;# 
   940     0FEA                     	;# 
   941     0FEB                     	;# 
   942     0FED                     	;# 
   943     0FEE                     	;# 
   944     0FEF                     	;# 
   945     0000                     	;# 
   946     0001                     	;# 
   947     0002                     	;# 
   948     0003                     	;# 
   949     0004                     	;# 
   950     0005                     	;# 
   951     0006                     	;# 
   952     0007                     	;# 
   953     0008                     	;# 
   954     0009                     	;# 
   955     000A                     	;# 
   956     000B                     	;# 
   957     000C                     	;# 
   958     000D                     	;# 
   959     000E                     	;# 
   960     0010                     	;# 
   961     0011                     	;# 
   962     0012                     	;# 
   963     0013                     	;# 
   964     0015                     	;# 
   965     0016                     	;# 
   966     0016                     	;# 
   967     0017                     	;# 
   968     0018                     	;# 
   969     0019                     	;# 
   970     001A                     	;# 
   971     001B                     	;# 
   972     001C                     	;# 
   973     001E                     	;# 
   974     001F                     	;# 
   975     008C                     	;# 
   976     008D                     	;# 
   977     008E                     	;# 
   978     0090                     	;# 
   979     0091                     	;# 
   980     0092                     	;# 
   981     0093                     	;# 
   982     0095                     	;# 
   983     0096                     	;# 
   984     0097                     	;# 
   985     0098                     	;# 
   986     0099                     	;# 
   987     009A                     	;# 
   988     009B                     	;# 
   989     009B                     	;# 
   990     009C                     	;# 
   991     009D                     	;# 
   992     009E                     	;# 
   993     010C                     	;# 
   994     010D                     	;# 
   995     010E                     	;# 
   996     0110                     	;# 
   997     0111                     	;# 
   998     0112                     	;# 
   999     0113                     	;# 
  1000     0114                     	;# 
  1001     0115                     	;# 
  1002     0116                     	;# 
  1003     0117                     	;# 
  1004     0118                     	;# 
  1005     0119                     	;# 
  1006     011A                     	;# 
  1007     011B                     	;# 
  1008     011D                     	;# 
  1009     018C                     	;# 
  1010     018D                     	;# 
  1011     0191                     	;# 
  1012     0191                     	;# 
  1013     0192                     	;# 
  1014     0193                     	;# 
  1015     0193                     	;# 
  1016     0193                     	;# 
  1017     0194                     	;# 
  1018     0195                     	;# 
  1019     0196                     	;# 
  1020     0199                     	;# 
  1021     019A                     	;# 
  1022     019B                     	;# 
  1023     019B                     	;# 
  1024     019B                     	;# 
  1025     019B                     	;# 
  1026     019C                     	;# 
  1027     019C                     	;# 
  1028     019D                     	;# 
  1029     019E                     	;# 
  1030     019F                     	;# 
  1031     020D                     	;# 
  1032     0210                     	;# 
  1033     0211                     	;# 
  1034     0212                     	;# 
  1035     0213                     	;# 
  1036     0214                     	;# 
  1037     0215                     	;# 
  1038     0215                     	;# 
  1039     0216                     	;# 
  1040     0217                     	;# 
  1041     0291                     	;# 
  1042     0291                     	;# 
  1043     0292                     	;# 
  1044     0293                     	;# 
  1045     0294                     	;# 
  1046     0295                     	;# 
  1047     0295                     	;# 
  1048     0296                     	;# 
  1049     0298                     	;# 
  1050     0298                     	;# 
  1051     0299                     	;# 
  1052     029A                     	;# 
  1053     029B                     	;# 
  1054     029C                     	;# 
  1055     029C                     	;# 
  1056     029D                     	;# 
  1057     029E                     	;# 
  1058     029F                     	;# 
  1059     0311                     	;# 
  1060     0311                     	;# 
  1061     0312                     	;# 
  1062     0313                     	;# 
  1063     0314                     	;# 
  1064     0315                     	;# 
  1065     0315                     	;# 
  1066     0316                     	;# 
  1067     0318                     	;# 
  1068     0318                     	;# 
  1069     0319                     	;# 
  1070     031A                     	;# 
  1071     031C                     	;# 
  1072     031C                     	;# 
  1073     031D                     	;# 
  1074     031E                     	;# 
  1075     0394                     	;# 
  1076     0395                     	;# 
  1077     0396                     	;# 
  1078     0415                     	;# 
  1079     0416                     	;# 
  1080     0417                     	;# 
  1081     041C                     	;# 
  1082     041D                     	;# 
  1083     041E                     	;# 
  1084     0791                     	;# 
  1085     0792                     	;# 
  1086     0793                     	;# 
  1087     0794                     	;# 
  1088     0795                     	;# 
  1089     0798                     	;# 
  1090     0799                     	;# 
  1091     07A0                     	;# 
  1092     07A1                     	;# 
  1093     07A3                     	;# 
  1094     07A4                     	;# 
  1095     07A6                     	;# 
  1096     07A7                     	;# 
  1097     07A9                     	;# 
  1098     07AA                     	;# 
  1099     0FE4                     	;# 
  1100     0FE5                     	;# 
  1101     0FE6                     	;# 
  1102     0FE7                     	;# 
  1103     0FE8                     	;# 
  1104     0FE9                     	;# 
  1105     0FEA                     	;# 
  1106     0FEB                     	;# 
  1107     0FED                     	;# 
  1108     0FEE                     	;# 
  1109     0FEF                     	;# 
  1110     0000                     	;# 
  1111     0001                     	;# 
  1112     0002                     	;# 
  1113     0003                     	;# 
  1114     0004                     	;# 
  1115     0005                     	;# 
  1116     0006                     	;# 
  1117     0007                     	;# 
  1118     0008                     	;# 
  1119     0009                     	;# 
  1120     000A                     	;# 
  1121     000B                     	;# 
  1122     000C                     	;# 
  1123     000D                     	;# 
  1124     000E                     	;# 
  1125     0010                     	;# 
  1126     0011                     	;# 
  1127     0012                     	;# 
  1128     0013                     	;# 
  1129     0015                     	;# 
  1130     0016                     	;# 
  1131     0016                     	;# 
  1132     0017                     	;# 
  1133     0018                     	;# 
  1134     0019                     	;# 
  1135     001A                     	;# 
  1136     001B                     	;# 
  1137     001C                     	;# 
  1138     001E                     	;# 
  1139     001F                     	;# 
  1140     008C                     	;# 
  1141     008D                     	;# 
  1142     008E                     	;# 
  1143     0090                     	;# 
  1144     0091                     	;# 
  1145     0092                     	;# 
  1146     0093                     	;# 
  1147     0095                     	;# 
  1148     0096                     	;# 
  1149     0097                     	;# 
  1150     0098                     	;# 
  1151     0099                     	;# 
  1152     009A                     	;# 
  1153     009B                     	;# 
  1154     009B                     	;# 
  1155     009C                     	;# 
  1156     009D                     	;# 
  1157     009E                     	;# 
  1158     010C                     	;# 
  1159     010D                     	;# 
  1160     010E                     	;# 
  1161     0110                     	;# 
  1162     0111                     	;# 
  1163     0112                     	;# 
  1164     0113                     	;# 
  1165     0114                     	;# 
  1166     0115                     	;# 
  1167     0116                     	;# 
  1168     0117                     	;# 
  1169     0118                     	;# 
  1170     0119                     	;# 
  1171     011A                     	;# 
  1172     011B                     	;# 
  1173     011D                     	;# 
  1174     018C                     	;# 
  1175     018D                     	;# 
  1176     0191                     	;# 
  1177     0191                     	;# 
  1178     0192                     	;# 
  1179     0193                     	;# 
  1180     0193                     	;# 
  1181     0193                     	;# 
  1182     0194                     	;# 
  1183     0195                     	;# 
  1184     0196                     	;# 
  1185     0199                     	;# 
  1186     019A                     	;# 
  1187     019B                     	;# 
  1188     019B                     	;# 
  1189     019B                     	;# 
  1190     019B                     	;# 
  1191     019C                     	;# 
  1192     019C                     	;# 
  1193     019D                     	;# 
  1194     019E                     	;# 
  1195     019F                     	;# 
  1196     020D                     	;# 
  1197     0210                     	;# 
  1198     0211                     	;# 
  1199     0212                     	;# 
  1200     0213                     	;# 
  1201     0214                     	;# 
  1202     0215                     	;# 
  1203     0215                     	;# 
  1204     0216                     	;# 
  1205     0217                     	;# 
  1206     0291                     	;# 
  1207     0291                     	;# 
  1208     0292                     	;# 
  1209     0293                     	;# 
  1210     0294                     	;# 
  1211     0295                     	;# 
  1212     0295                     	;# 
  1213     0296                     	;# 
  1214     0298                     	;# 
  1215     0298                     	;# 
  1216     0299                     	;# 
  1217     029A                     	;# 
  1218     029B                     	;# 
  1219     029C                     	;# 
  1220     029C                     	;# 
  1221     029D                     	;# 
  1222     029E                     	;# 
  1223     029F                     	;# 
  1224     0311                     	;# 
  1225     0311                     	;# 
  1226     0312                     	;# 
  1227     0313                     	;# 
  1228     0314                     	;# 
  1229     0315                     	;# 
  1230     0315                     	;# 
  1231     0316                     	;# 
  1232     0318                     	;# 
  1233     0318                     	;# 
  1234     0319                     	;# 
  1235     031A                     	;# 
  1236     031C                     	;# 
  1237     031C                     	;# 
  1238     031D                     	;# 
  1239     031E                     	;# 
  1240     0394                     	;# 
  1241     0395                     	;# 
  1242     0396                     	;# 
  1243     0415                     	;# 
  1244     0416                     	;# 
  1245     0417                     	;# 
  1246     041C                     	;# 
  1247     041D                     	;# 
  1248     041E                     	;# 
  1249     0791                     	;# 
  1250     0792                     	;# 
  1251     0793                     	;# 
  1252     0794                     	;# 
  1253     0795                     	;# 
  1254     0798                     	;# 
  1255     0799                     	;# 
  1256     07A0                     	;# 
  1257     07A1                     	;# 
  1258     07A3                     	;# 
  1259     07A4                     	;# 
  1260     07A6                     	;# 
  1261     07A7                     	;# 
  1262     07A9                     	;# 
  1263     07AA                     	;# 
  1264     0FE4                     	;# 
  1265     0FE5                     	;# 
  1266     0FE6                     	;# 
  1267     0FE7                     	;# 
  1268     0FE8                     	;# 
  1269     0FE9                     	;# 
  1270     0FEA                     	;# 
  1271     0FEB                     	;# 
  1272     0FED                     	;# 
  1273     0FEE                     	;# 
  1274     0FEF                     	;# 
  1275     0000                     	;# 
  1276     0001                     	;# 
  1277     0002                     	;# 
  1278     0003                     	;# 
  1279     0004                     	;# 
  1280     0005                     	;# 
  1281     0006                     	;# 
  1282     0007                     	;# 
  1283     0008                     	;# 
  1284     0009                     	;# 
  1285     000A                     	;# 
  1286     000B                     	;# 
  1287     000C                     	;# 
  1288     000D                     	;# 
  1289     000E                     	;# 
  1290     0010                     	;# 
  1291     0011                     	;# 
  1292     0012                     	;# 
  1293     0013                     	;# 
  1294     0015                     	;# 
  1295     0016                     	;# 
  1296     0016                     	;# 
  1297     0017                     	;# 
  1298     0018                     	;# 
  1299     0019                     	;# 
  1300     001A                     	;# 
  1301     001B                     	;# 
  1302     001C                     	;# 
  1303     001E                     	;# 
  1304     001F                     	;# 
  1305     008C                     	;# 
  1306     008D                     	;# 
  1307     008E                     	;# 
  1308     0090                     	;# 
  1309     0091                     	;# 
  1310     0092                     	;# 
  1311     0093                     	;# 
  1312     0095                     	;# 
  1313     0096                     	;# 
  1314     0097                     	;# 
  1315     0098                     	;# 
  1316     0099                     	;# 
  1317     009A                     	;# 
  1318     009B                     	;# 
  1319     009B                     	;# 
  1320     009C                     	;# 
  1321     009D                     	;# 
  1322     009E                     	;# 
  1323     010C                     	;# 
  1324     010D                     	;# 
  1325     010E                     	;# 
  1326     0110                     	;# 
  1327     0111                     	;# 
  1328     0112                     	;# 
  1329     0113                     	;# 
  1330     0114                     	;# 
  1331     0115                     	;# 
  1332     0116                     	;# 
  1333     0117                     	;# 
  1334     0118                     	;# 
  1335     0119                     	;# 
  1336     011A                     	;# 
  1337     011B                     	;# 
  1338     011D                     	;# 
  1339     018C                     	;# 
  1340     018D                     	;# 
  1341     0191                     	;# 
  1342     0191                     	;# 
  1343     0192                     	;# 
  1344     0193                     	;# 
  1345     0193                     	;# 
  1346     0193                     	;# 
  1347     0194                     	;# 
  1348     0195                     	;# 
  1349     0196                     	;# 
  1350     0199                     	;# 
  1351     019A                     	;# 
  1352     019B                     	;# 
  1353     019B                     	;# 
  1354     019B                     	;# 
  1355     019B                     	;# 
  1356     019C                     	;# 
  1357     019C                     	;# 
  1358     019D                     	;# 
  1359     019E                     	;# 
  1360     019F                     	;# 
  1361     020D                     	;# 
  1362     0210                     	;# 
  1363     0211                     	;# 
  1364     0212                     	;# 
  1365     0213                     	;# 
  1366     0214                     	;# 
  1367     0215                     	;# 
  1368     0215                     	;# 
  1369     0216                     	;# 
  1370     0217                     	;# 
  1371     0291                     	;# 
  1372     0291                     	;# 
  1373     0292                     	;# 
  1374     0293                     	;# 
  1375     0294                     	;# 
  1376     0295                     	;# 
  1377     0295                     	;# 
  1378     0296                     	;# 
  1379     0298                     	;# 
  1380     0298                     	;# 
  1381     0299                     	;# 
  1382     029A                     	;# 
  1383     029B                     	;# 
  1384     029C                     	;# 
  1385     029C                     	;# 
  1386     029D                     	;# 
  1387     029E                     	;# 
  1388     029F                     	;# 
  1389     0311                     	;# 
  1390     0311                     	;# 
  1391     0312                     	;# 
  1392     0313                     	;# 
  1393     0314                     	;# 
  1394     0315                     	;# 
  1395     0315                     	;# 
  1396     0316                     	;# 
  1397     0318                     	;# 
  1398     0318                     	;# 
  1399     0319                     	;# 
  1400     031A                     	;# 
  1401     031C                     	;# 
  1402     031C                     	;# 
  1403     031D                     	;# 
  1404     031E                     	;# 
  1405     0394                     	;# 
  1406     0395                     	;# 
  1407     0396                     	;# 
  1408     0415                     	;# 
  1409     0416                     	;# 
  1410     0417                     	;# 
  1411     041C                     	;# 
  1412     041D                     	;# 
  1413     041E                     	;# 
  1414     0791                     	;# 
  1415     0792                     	;# 
  1416     0793                     	;# 
  1417     0794                     	;# 
  1418     0795                     	;# 
  1419     0798                     	;# 
  1420     0799                     	;# 
  1421     07A0                     	;# 
  1422     07A1                     	;# 
  1423     07A3                     	;# 
  1424     07A4                     	;# 
  1425     07A6                     	;# 
  1426     07A7                     	;# 
  1427     07A9                     	;# 
  1428     07AA                     	;# 
  1429     0FE4                     	;# 
  1430     0FE5                     	;# 
  1431     0FE6                     	;# 
  1432     0FE7                     	;# 
  1433     0FE8                     	;# 
  1434     0FE9                     	;# 
  1435     0FEA                     	;# 
  1436     0FEB                     	;# 
  1437     0FED                     	;# 
  1438     0FEE                     	;# 
  1439     0FEF                     	;# 
  1440     0000                     	;# 
  1441     0001                     	;# 
  1442     0002                     	;# 
  1443     0003                     	;# 
  1444     0004                     	;# 
  1445     0005                     	;# 
  1446     0006                     	;# 
  1447     0007                     	;# 
  1448     0008                     	;# 
  1449     0009                     	;# 
  1450     000A                     	;# 
  1451     000B                     	;# 
  1452     000C                     	;# 
  1453     000D                     	;# 
  1454     000E                     	;# 
  1455     0010                     	;# 
  1456     0011                     	;# 
  1457     0012                     	;# 
  1458     0013                     	;# 
  1459     0015                     	;# 
  1460     0016                     	;# 
  1461     0016                     	;# 
  1462     0017                     	;# 
  1463     0018                     	;# 
  1464     0019                     	;# 
  1465     001A                     	;# 
  1466     001B                     	;# 
  1467     001C                     	;# 
  1468     001E                     	;# 
  1469     001F                     	;# 
  1470     008C                     	;# 
  1471     008D                     	;# 
  1472     008E                     	;# 
  1473     0090                     	;# 
  1474     0091                     	;# 
  1475     0092                     	;# 
  1476     0093                     	;# 
  1477     0095                     	;# 
  1478     0096                     	;# 
  1479     0097                     	;# 
  1480     0098                     	;# 
  1481     0099                     	;# 
  1482     009A                     	;# 
  1483     009B                     	;# 
  1484     009B                     	;# 
  1485     009C                     	;# 
  1486     009D                     	;# 
  1487     009E                     	;# 
  1488     010C                     	;# 
  1489     010D                     	;# 
  1490     010E                     	;# 
  1491     0110                     	;# 
  1492     0111                     	;# 
  1493     0112                     	;# 
  1494     0113                     	;# 
  1495     0114                     	;# 
  1496     0115                     	;# 
  1497     0116                     	;# 
  1498     0117                     	;# 
  1499     0118                     	;# 
  1500     0119                     	;# 
  1501     011A                     	;# 
  1502     011B                     	;# 
  1503     011D                     	;# 
  1504     018C                     	;# 
  1505     018D                     	;# 
  1506     0191                     	;# 
  1507     0191                     	;# 
  1508     0192                     	;# 
  1509     0193                     	;# 
  1510     0193                     	;# 
  1511     0193                     	;# 
  1512     0194                     	;# 
  1513     0195                     	;# 
  1514     0196                     	;# 
  1515     0199                     	;# 
  1516     019A                     	;# 
  1517     019B                     	;# 
  1518     019B                     	;# 
  1519     019B                     	;# 
  1520     019B                     	;# 
  1521     019C                     	;# 
  1522     019C                     	;# 
  1523     019D                     	;# 
  1524     019E                     	;# 
  1525     019F                     	;# 
  1526     020D                     	;# 
  1527     0210                     	;# 
  1528     0211                     	;# 
  1529     0212                     	;# 
  1530     0213                     	;# 
  1531     0214                     	;# 
  1532     0215                     	;# 
  1533     0215                     	;# 
  1534     0216                     	;# 
  1535     0217                     	;# 
  1536     0291                     	;# 
  1537     0291                     	;# 
  1538     0292                     	;# 
  1539     0293                     	;# 
  1540     0294                     	;# 
  1541     0295                     	;# 
  1542     0295                     	;# 
  1543     0296                     	;# 
  1544     0298                     	;# 
  1545     0298                     	;# 
  1546     0299                     	;# 
  1547     029A                     	;# 
  1548     029B                     	;# 
  1549     029C                     	;# 
  1550     029C                     	;# 
  1551     029D                     	;# 
  1552     029E                     	;# 
  1553     029F                     	;# 
  1554     0311                     	;# 
  1555     0311                     	;# 
  1556     0312                     	;# 
  1557     0313                     	;# 
  1558     0314                     	;# 
  1559     0315                     	;# 
  1560     0315                     	;# 
  1561     0316                     	;# 
  1562     0318                     	;# 
  1563     0318                     	;# 
  1564     0319                     	;# 
  1565     031A                     	;# 
  1566     031C                     	;# 
  1567     031C                     	;# 
  1568     031D                     	;# 
  1569     031E                     	;# 
  1570     0394                     	;# 
  1571     0395                     	;# 
  1572     0396                     	;# 
  1573     0415                     	;# 
  1574     0416                     	;# 
  1575     0417                     	;# 
  1576     041C                     	;# 
  1577     041D                     	;# 
  1578     041E                     	;# 
  1579     0791                     	;# 
  1580     0792                     	;# 
  1581     0793                     	;# 
  1582     0794                     	;# 
  1583     0795                     	;# 
  1584     0798                     	;# 
  1585     0799                     	;# 
  1586     07A0                     	;# 
  1587     07A1                     	;# 
  1588     07A3                     	;# 
  1589     07A4                     	;# 
  1590     07A6                     	;# 
  1591     07A7                     	;# 
  1592     07A9                     	;# 
  1593     07AA                     	;# 
  1594     0FE4                     	;# 
  1595     0FE5                     	;# 
  1596     0FE6                     	;# 
  1597     0FE7                     	;# 
  1598     0FE8                     	;# 
  1599     0FE9                     	;# 
  1600     0FEA                     	;# 
  1601     0FEB                     	;# 
  1602     0FED                     	;# 
  1603     0FEE                     	;# 
  1604     0FEF                     	;# 
  1605     0000                     	;# 
  1606     0001                     	;# 
  1607     0002                     	;# 
  1608     0003                     	;# 
  1609     0004                     	;# 
  1610     0005                     	;# 
  1611     0006                     	;# 
  1612     0007                     	;# 
  1613     0008                     	;# 
  1614     0009                     	;# 
  1615     000A                     	;# 
  1616     000B                     	;# 
  1617     000C                     	;# 
  1618     000D                     	;# 
  1619     000E                     	;# 
  1620     0010                     	;# 
  1621     0011                     	;# 
  1622     0012                     	;# 
  1623     0013                     	;# 
  1624     0015                     	;# 
  1625     0016                     	;# 
  1626     0016                     	;# 
  1627     0017                     	;# 
  1628     0018                     	;# 
  1629     0019                     	;# 
  1630     001A                     	;# 
  1631     001B                     	;# 
  1632     001C                     	;# 
  1633     001E                     	;# 
  1634     001F                     	;# 
  1635     008C                     	;# 
  1636     008D                     	;# 
  1637     008E                     	;# 
  1638     0090                     	;# 
  1639     0091                     	;# 
  1640     0092                     	;# 
  1641     0093                     	;# 
  1642     0095                     	;# 
  1643     0096                     	;# 
  1644     0097                     	;# 
  1645     0098                     	;# 
  1646     0099                     	;# 
  1647     009A                     	;# 
  1648     009B                     	;# 
  1649     009B                     	;# 
  1650     009C                     	;# 
  1651     009D                     	;# 
  1652     009E                     	;# 
  1653     010C                     	;# 
  1654     010D                     	;# 
  1655     010E                     	;# 
  1656     0110                     	;# 
  1657     0111                     	;# 
  1658     0112                     	;# 
  1659     0113                     	;# 
  1660     0114                     	;# 
  1661     0115                     	;# 
  1662     0116                     	;# 
  1663     0117                     	;# 
  1664     0118                     	;# 
  1665     0119                     	;# 
  1666     011A                     	;# 
  1667     011B                     	;# 
  1668     011D                     	;# 
  1669     018C                     	;# 
  1670     018D                     	;# 
  1671     0191                     	;# 
  1672     0191                     	;# 
  1673     0192                     	;# 
  1674     0193                     	;# 
  1675     0193                     	;# 
  1676     0193                     	;# 
  1677     0194                     	;# 
  1678     0195                     	;# 
  1679     0196                     	;# 
  1680     0199                     	;# 
  1681     019A                     	;# 
  1682     019B                     	;# 
  1683     019B                     	;# 
  1684     019B                     	;# 
  1685     019B                     	;# 
  1686     019C                     	;# 
  1687     019C                     	;# 
  1688     019D                     	;# 
  1689     019E                     	;# 
  1690     019F                     	;# 
  1691     020D                     	;# 
  1692     0210                     	;# 
  1693     0211                     	;# 
  1694     0212                     	;# 
  1695     0213                     	;# 
  1696     0214                     	;# 
  1697     0215                     	;# 
  1698     0215                     	;# 
  1699     0216                     	;# 
  1700     0217                     	;# 
  1701     0291                     	;# 
  1702     0291                     	;# 
  1703     0292                     	;# 
  1704     0293                     	;# 
  1705     0294                     	;# 
  1706     0295                     	;# 
  1707     0295                     	;# 
  1708     0296                     	;# 
  1709     0298                     	;# 
  1710     0298                     	;# 
  1711     0299                     	;# 
  1712     029A                     	;# 
  1713     029B                     	;# 
  1714     029C                     	;# 
  1715     029C                     	;# 
  1716     029D                     	;# 
  1717     029E                     	;# 
  1718     029F                     	;# 
  1719     0311                     	;# 
  1720     0311                     	;# 
  1721     0312                     	;# 
  1722     0313                     	;# 
  1723     0314                     	;# 
  1724     0315                     	;# 
  1725     0315                     	;# 
  1726     0316                     	;# 
  1727     0318                     	;# 
  1728     0318                     	;# 
  1729     0319                     	;# 
  1730     031A                     	;# 
  1731     031C                     	;# 
  1732     031C                     	;# 
  1733     031D                     	;# 
  1734     031E                     	;# 
  1735     0394                     	;# 
  1736     0395                     	;# 
  1737     0396                     	;# 
  1738     0415                     	;# 
  1739     0416                     	;# 
  1740     0417                     	;# 
  1741     041C                     	;# 
  1742     041D                     	;# 
  1743     041E                     	;# 
  1744     0791                     	;# 
  1745     0792                     	;# 
  1746     0793                     	;# 
  1747     0794                     	;# 
  1748     0795                     	;# 
  1749     0798                     	;# 
  1750     0799                     	;# 
  1751     07A0                     	;# 
  1752     07A1                     	;# 
  1753     07A3                     	;# 
  1754     07A4                     	;# 
  1755     07A6                     	;# 
  1756     07A7                     	;# 
  1757     07A9                     	;# 
  1758     07AA                     	;# 
  1759     0FE4                     	;# 
  1760     0FE5                     	;# 
  1761     0FE6                     	;# 
  1762     0FE7                     	;# 
  1763     0FE8                     	;# 
  1764     0FE9                     	;# 
  1765     0FEA                     	;# 
  1766     0FEB                     	;# 
  1767     0FED                     	;# 
  1768     0FEE                     	;# 
  1769     0FEF                     	;# 
  1770     0000                     	;# 
  1771     0001                     	;# 
  1772     0002                     	;# 
  1773     0003                     	;# 
  1774     0004                     	;# 
  1775     0005                     	;# 
  1776     0006                     	;# 
  1777     0007                     	;# 
  1778     0008                     	;# 
  1779     0009                     	;# 
  1780     000A                     	;# 
  1781     000B                     	;# 
  1782     000C                     	;# 
  1783     000D                     	;# 
  1784     000E                     	;# 
  1785     0010                     	;# 
  1786     0011                     	;# 
  1787     0012                     	;# 
  1788     0013                     	;# 
  1789     0015                     	;# 
  1790     0016                     	;# 
  1791     0016                     	;# 
  1792     0017                     	;# 
  1793     0018                     	;# 
  1794     0019                     	;# 
  1795     001A                     	;# 
  1796     001B                     	;# 
  1797     001C                     	;# 
  1798     001E                     	;# 
  1799     001F                     	;# 
  1800     008C                     	;# 
  1801     008D                     	;# 
  1802     008E                     	;# 
  1803     0090                     	;# 
  1804     0091                     	;# 
  1805     0092                     	;# 
  1806     0093                     	;# 
  1807     0095                     	;# 
  1808     0096                     	;# 
  1809     0097                     	;# 
  1810     0098                     	;# 
  1811     0099                     	;# 
  1812     009A                     	;# 
  1813     009B                     	;# 
  1814     009B                     	;# 
  1815     009C                     	;# 
  1816     009D                     	;# 
  1817     009E                     	;# 
  1818     010C                     	;# 
  1819     010D                     	;# 
  1820     010E                     	;# 
  1821     0110                     	;# 
  1822     0111                     	;# 
  1823     0112                     	;# 
  1824     0113                     	;# 
  1825     0114                     	;# 
  1826     0115                     	;# 
  1827     0116                     	;# 
  1828     0117                     	;# 
  1829     0118                     	;# 
  1830     0119                     	;# 
  1831     011A                     	;# 
  1832     011B                     	;# 
  1833     011D                     	;# 
  1834     018C                     	;# 
  1835     018D                     	;# 
  1836     0191                     	;# 
  1837     0191                     	;# 
  1838     0192                     	;# 
  1839     0193                     	;# 
  1840     0193                     	;# 
  1841     0193                     	;# 
  1842     0194                     	;# 
  1843     0195                     	;# 
  1844     0196                     	;# 
  1845     0199                     	;# 
  1846     019A                     	;# 
  1847     019B                     	;# 
  1848     019B                     	;# 
  1849     019B                     	;# 
  1850     019B                     	;# 
  1851     019C                     	;# 
  1852     019C                     	;# 
  1853     019D                     	;# 
  1854     019E                     	;# 
  1855     019F                     	;# 
  1856     020D                     	;# 
  1857     0210                     	;# 
  1858     0211                     	;# 
  1859     0212                     	;# 
  1860     0213                     	;# 
  1861     0214                     	;# 
  1862     0215                     	;# 
  1863     0215                     	;# 
  1864     0216                     	;# 
  1865     0217                     	;# 
  1866     0291                     	;# 
  1867     0291                     	;# 
  1868     0292                     	;# 
  1869     0293                     	;# 
  1870     0294                     	;# 
  1871     0295                     	;# 
  1872     0295                     	;# 
  1873     0296                     	;# 
  1874     0298                     	;# 
  1875     0298                     	;# 
  1876     0299                     	;# 
  1877     029A                     	;# 
  1878     029B                     	;# 
  1879     029C                     	;# 
  1880     029C                     	;# 
  1881     029D                     	;# 
  1882     029E                     	;# 
  1883     029F                     	;# 
  1884     0311                     	;# 
  1885     0311                     	;# 
  1886     0312                     	;# 
  1887     0313                     	;# 
  1888     0314                     	;# 
  1889     0315                     	;# 
  1890     0315                     	;# 
  1891     0316                     	;# 
  1892     0318                     	;# 
  1893     0318                     	;# 
  1894     0319                     	;# 
  1895     031A                     	;# 
  1896     031C                     	;# 
  1897     031C                     	;# 
  1898     031D                     	;# 
  1899     031E                     	;# 
  1900     0394                     	;# 
  1901     0395                     	;# 
  1902     0396                     	;# 
  1903     0415                     	;# 
  1904     0416                     	;# 
  1905     0417                     	;# 
  1906     041C                     	;# 
  1907     041D                     	;# 
  1908     041E                     	;# 
  1909     0791                     	;# 
  1910     0792                     	;# 
  1911     0793                     	;# 
  1912     0794                     	;# 
  1913     0795                     	;# 
  1914     0798                     	;# 
  1915     0799                     	;# 
  1916     07A0                     	;# 
  1917     07A1                     	;# 
  1918     07A3                     	;# 
  1919     07A4                     	;# 
  1920     07A6                     	;# 
  1921     07A7                     	;# 
  1922     07A9                     	;# 
  1923     07AA                     	;# 
  1924     0FE4                     	;# 
  1925     0FE5                     	;# 
  1926     0FE6                     	;# 
  1927     0FE7                     	;# 
  1928     0FE8                     	;# 
  1929     0FE9                     	;# 
  1930     0FEA                     	;# 
  1931     0FEB                     	;# 
  1932     0FED                     	;# 
  1933     0FEE                     	;# 
  1934     0FEF                     	;# 
  1935     0000                     	;# 
  1936     0001                     	;# 
  1937     0002                     	;# 
  1938     0003                     	;# 
  1939     0004                     	;# 
  1940     0005                     	;# 
  1941     0006                     	;# 
  1942     0007                     	;# 
  1943     0008                     	;# 
  1944     0009                     	;# 
  1945     000A                     	;# 
  1946     000B                     	;# 
  1947     000C                     	;# 
  1948     000D                     	;# 
  1949     000E                     	;# 
  1950     0010                     	;# 
  1951     0011                     	;# 
  1952     0012                     	;# 
  1953     0013                     	;# 
  1954     0015                     	;# 
  1955     0016                     	;# 
  1956     0016                     	;# 
  1957     0017                     	;# 
  1958     0018                     	;# 
  1959     0019                     	;# 
  1960     001A                     	;# 
  1961     001B                     	;# 
  1962     001C                     	;# 
  1963     001E                     	;# 
  1964     001F                     	;# 
  1965     008C                     	;# 
  1966     008D                     	;# 
  1967     008E                     	;# 
  1968     0090                     	;# 
  1969     0091                     	;# 
  1970     0092                     	;# 
  1971     0093                     	;# 
  1972     0095                     	;# 
  1973     0096                     	;# 
  1974     0097                     	;# 
  1975     0098                     	;# 
  1976     0099                     	;# 
  1977     009A                     	;# 
  1978     009B                     	;# 
  1979     009B                     	;# 
  1980     009C                     	;# 
  1981     009D                     	;# 
  1982     009E                     	;# 
  1983     010C                     	;# 
  1984     010D                     	;# 
  1985     010E                     	;# 
  1986     0110                     	;# 
  1987     0111                     	;# 
  1988     0112                     	;# 
  1989     0113                     	;# 
  1990     0114                     	;# 
  1991     0115                     	;# 
  1992     0116                     	;# 
  1993     0117                     	;# 
  1994     0118                     	;# 
  1995     0119                     	;# 
  1996     011A                     	;# 
  1997     011B                     	;# 
  1998     011D                     	;# 
  1999     018C                     	;# 
  2000     018D                     	;# 
  2001     0191                     	;# 
  2002     0191                     	;# 
  2003     0192                     	;# 
  2004     0193                     	;# 
  2005     0193                     	;# 
  2006     0193                     	;# 
  2007     0194                     	;# 
  2008     0195                     	;# 
  2009     0196                     	;# 
  2010     0199                     	;# 
  2011     019A                     	;# 
  2012     019B                     	;# 
  2013     019B                     	;# 
  2014     019B                     	;# 
  2015     019B                     	;# 
  2016     019C                     	;# 
  2017     019C                     	;# 
  2018     019D                     	;# 
  2019     019E                     	;# 
  2020     019F                     	;# 
  2021     020D                     	;# 
  2022     0210                     	;# 
  2023     0211                     	;# 
  2024     0212                     	;# 
  2025     0213                     	;# 
  2026     0214                     	;# 
  2027     0215                     	;# 
  2028     0215                     	;# 
  2029     0216                     	;# 
  2030     0217                     	;# 
  2031     0291                     	;# 
  2032     0291                     	;# 
  2033     0292                     	;# 
  2034     0293                     	;# 
  2035     0294                     	;# 
  2036     0295                     	;# 
  2037     0295                     	;# 
  2038     0296                     	;# 
  2039     0298                     	;# 
  2040     0298                     	;# 
  2041     0299                     	;# 
  2042     029A                     	;# 
  2043     029B                     	;# 
  2044     029C                     	;# 
  2045     029C                     	;# 
  2046     029D                     	;# 
  2047     029E                     	;# 
  2048     029F                     	;# 
  2049     0311                     	;# 
  2050     0311                     	;# 
  2051     0312                     	;# 
  2052     0313                     	;# 
  2053     0314                     	;# 
  2054     0315                     	;# 
  2055     0315                     	;# 
  2056     0316                     	;# 
  2057     0318                     	;# 
  2058     0318                     	;# 
  2059     0319                     	;# 
  2060     031A                     	;# 
  2061     031C                     	;# 
  2062     031C                     	;# 
  2063     031D                     	;# 
  2064     031E                     	;# 
  2065     0394                     	;# 
  2066     0395                     	;# 
  2067     0396                     	;# 
  2068     0415                     	;# 
  2069     0416                     	;# 
  2070     0417                     	;# 
  2071     041C                     	;# 
  2072     041D                     	;# 
  2073     041E                     	;# 
  2074     0791                     	;# 
  2075     0792                     	;# 
  2076     0793                     	;# 
  2077     0794                     	;# 
  2078     0795                     	;# 
  2079     0798                     	;# 
  2080     0799                     	;# 
  2081     07A0                     	;# 
  2082     07A1                     	;# 
  2083     07A3                     	;# 
  2084     07A4                     	;# 
  2085     07A6                     	;# 
  2086     07A7                     	;# 
  2087     07A9                     	;# 
  2088     07AA                     	;# 
  2089     0FE4                     	;# 
  2090     0FE5                     	;# 
  2091     0FE6                     	;# 
  2092     0FE7                     	;# 
  2093     0FE8                     	;# 
  2094     0FE9                     	;# 
  2095     0FEA                     	;# 
  2096     0FEB                     	;# 
  2097     0FED                     	;# 
  2098     0FEE                     	;# 
  2099     0FEF                     	;# 
  2100     0000                     	;# 
  2101     0001                     	;# 
  2102     0002                     	;# 
  2103     0003                     	;# 
  2104     0004                     	;# 
  2105     0005                     	;# 
  2106     0006                     	;# 
  2107     0007                     	;# 
  2108     0008                     	;# 
  2109     0009                     	;# 
  2110     000A                     	;# 
  2111     000B                     	;# 
  2112     000C                     	;# 
  2113     000D                     	;# 
  2114     000E                     	;# 
  2115     0010                     	;# 
  2116     0011                     	;# 
  2117     0012                     	;# 
  2118     0013                     	;# 
  2119     0015                     	;# 
  2120     0016                     	;# 
  2121     0016                     	;# 
  2122     0017                     	;# 
  2123     0018                     	;# 
  2124     0019                     	;# 
  2125     001A                     	;# 
  2126     001B                     	;# 
  2127     001C                     	;# 
  2128     001E                     	;# 
  2129     001F                     	;# 
  2130     008C                     	;# 
  2131     008D                     	;# 
  2132     008E                     	;# 
  2133     0090                     	;# 
  2134     0091                     	;# 
  2135     0092                     	;# 
  2136     0093                     	;# 
  2137     0095                     	;# 
  2138     0096                     	;# 
  2139     0097                     	;# 
  2140     0098                     	;# 
  2141     0099                     	;# 
  2142     009A                     	;# 
  2143     009B                     	;# 
  2144     009B                     	;# 
  2145     009C                     	;# 
  2146     009D                     	;# 
  2147     009E                     	;# 
  2148     010C                     	;# 
  2149     010D                     	;# 
  2150     010E                     	;# 
  2151     0110                     	;# 
  2152     0111                     	;# 
  2153     0112                     	;# 
  2154     0113                     	;# 
  2155     0114                     	;# 
  2156     0115                     	;# 
  2157     0116                     	;# 
  2158     0117                     	;# 
  2159     0118                     	;# 
  2160     0119                     	;# 
  2161     011A                     	;# 
  2162     011B                     	;# 
  2163     011D                     	;# 
  2164     018C                     	;# 
  2165     018D                     	;# 
  2166     0191                     	;# 
  2167     0191                     	;# 
  2168     0192                     	;# 
  2169     0193                     	;# 
  2170     0193                     	;# 
  2171     0193                     	;# 
  2172     0194                     	;# 
  2173     0195                     	;# 
  2174     0196                     	;# 
  2175     0199                     	;# 
  2176     019A                     	;# 
  2177     019B                     	;# 
  2178     019B                     	;# 
  2179     019B                     	;# 
  2180     019B                     	;# 
  2181     019C                     	;# 
  2182     019C                     	;# 
  2183     019D                     	;# 
  2184     019E                     	;# 
  2185     019F                     	;# 
  2186     020D                     	;# 
  2187     0210                     	;# 
  2188     0211                     	;# 
  2189     0212                     	;# 
  2190     0213                     	;# 
  2191     0214                     	;# 
  2192     0215                     	;# 
  2193     0215                     	;# 
  2194     0216                     	;# 
  2195     0217                     	;# 
  2196     0291                     	;# 
  2197     0291                     	;# 
  2198     0292                     	;# 
  2199     0293                     	;# 
  2200     0294                     	;# 
  2201     0295                     	;# 
  2202     0295                     	;# 
  2203     0296                     	;# 
  2204     0298                     	;# 
  2205     0298                     	;# 
  2206     0299                     	;# 
  2207     029A                     	;# 
  2208     029B                     	;# 
  2209     029C                     	;# 
  2210     029C                     	;# 
  2211     029D                     	;# 
  2212     029E                     	;# 
  2213     029F                     	;# 
  2214     0311                     	;# 
  2215     0311                     	;# 
  2216     0312                     	;# 
  2217     0313                     	;# 
  2218     0314                     	;# 
  2219     0315                     	;# 
  2220     0315                     	;# 
  2221     0316                     	;# 
  2222     0318                     	;# 
  2223     0318                     	;# 
  2224     0319                     	;# 
  2225     031A                     	;# 
  2226     031C                     	;# 
  2227     031C                     	;# 
  2228     031D                     	;# 
  2229     031E                     	;# 
  2230     0394                     	;# 
  2231     0395                     	;# 
  2232     0396                     	;# 
  2233     0415                     	;# 
  2234     0416                     	;# 
  2235     0417                     	;# 
  2236     041C                     	;# 
  2237     041D                     	;# 
  2238     041E                     	;# 
  2239     0791                     	;# 
  2240     0792                     	;# 
  2241     0793                     	;# 
  2242     0794                     	;# 
  2243     0795                     	;# 
  2244     0798                     	;# 
  2245     0799                     	;# 
  2246     07A0                     	;# 
  2247     07A1                     	;# 
  2248     07A3                     	;# 
  2249     07A4                     	;# 
  2250     07A6                     	;# 
  2251     07A7                     	;# 
  2252     07A9                     	;# 
  2253     07AA                     	;# 
  2254     0FE4                     	;# 
  2255     0FE5                     	;# 
  2256     0FE6                     	;# 
  2257     0FE7                     	;# 
  2258     0FE8                     	;# 
  2259     0FE9                     	;# 
  2260     0FEA                     	;# 
  2261     0FEB                     	;# 
  2262     0FED                     	;# 
  2263     0FEE                     	;# 
  2264     0FEF                     	;# 
  2265                           
  2266                           	psect	idataBANK0
  2267     068C                     __pidataBANK0:
  2268                           
  2269                           ;initializer for _positive_pulse_width_us_min
  2270     068C  34FF               	retlw	255
  2271                           
  2272                           	psect	stringtext1
  2273     03CD                     __pstringtext1:
  2274     03CD                     _CS:
  2275     03CD  344C               	retlw	76
  2276     03CE  349F               	retlw	159
  2277     03CF  34ED               	retlw	237
  2278     03D0  343E               	retlw	62
  2279     03D1  3466               	retlw	102
  2280     03D2  34B5               	retlw	181
  2281     03D3  34C7               	retlw	199
  2282     03D4  3414               	retlw	20
  2283     03D5  3459               	retlw	89
  2284     03D6  348A               	retlw	138
  2285     03D7  34F8               	retlw	248
  2286     03D8  342B               	retlw	43
  2287     03D9  3473               	retlw	115
  2288     03DA  34A0               	retlw	160
  2289     03DB  34D2               	retlw	210
  2290     03DC  3401               	retlw	1
  2291     03DD  348E               	retlw	142
  2292     03DE  345D               	retlw	93
  2293     03DF  342F               	retlw	47
  2294     03E0  34FC               	retlw	252
  2295     03E1  34A4               	retlw	164
  2296     03E2  3477               	retlw	119
  2297     03E3  3405               	retlw	5
  2298     03E4  34D6               	retlw	214
  2299     03E5  349B               	retlw	155
  2300     03E6  3448               	retlw	72
  2301     03E7  343A               	retlw	58
  2302     03E8  34E9               	retlw	233
  2303     03E9  34B1               	retlw	177
  2304     03EA  3462               	retlw	98
  2305     03EB  3410               	retlw	16
  2306     03EC  34C3               	retlw	195
  2307     03ED  342D               	retlw	45
  2308     03EE  34FE               	retlw	254
  2309     03EF  348C               	retlw	140
  2310     03F0  345F               	retlw	95
  2311     03F1  3407               	retlw	7
  2312     03F2  34D4               	retlw	212
  2313     03F3  34A6               	retlw	166
  2314     03F4  3475               	retlw	117
  2315     03F5  3438               	retlw	56
  2316     03F6  34EB               	retlw	235
  2317     03F7  3499               	retlw	153
  2318     03F8  344A               	retlw	74
  2319     03F9  3412               	retlw	18
  2320     03FA  34C1               	retlw	193
  2321     03FB  34B3               	retlw	179
  2322     03FC  3460               	retlw	96
  2323     03FD  34EF               	retlw	239
  2324     03FE  343C               	retlw	60
  2325     03FF  344E               	retlw	78
  2326     0400  349D               	retlw	157
  2327     0401  34C5               	retlw	197
  2328     0402  3416               	retlw	22
  2329     0403  3464               	retlw	100
  2330     0404  34B7               	retlw	183
  2331     0405  34FA               	retlw	250
  2332     0406  3429               	retlw	41
  2333     0407  345B               	retlw	91
  2334     0408  3488               	retlw	136
  2335     0409  34D0               	retlw	208
  2336     040A  3403               	retlw	3
  2337     040B  3471               	retlw	113
  2338     040C  34A2               	retlw	162
  2339     040D                     __end_of_CS:
  2340                           
  2341                           	psect	stringtext2
  2342     068D                     __pstringtext2:
  2343     068D                     _BIT_7:
  2344     068D  3407               	retlw	7
  2345     068E                     __end_of_BIT_7:
  2346                           
  2347                           	psect	stringtext3
  2348     068E                     __pstringtext3:
  2349     068E                     _FALLING_EDGE_TRIG:
  2350     068E  3404               	retlw	4
  2351     068F                     __end_of_FALLING_EDGE_TRIG:
  2352                           
  2353                           	psect	stringtext4
  2354     068F                     __pstringtext4:
  2355     068F                     _RISING_EDGE_TRIG:
  2356     068F  3405               	retlw	5
  2357     0690                     __end_of_RISING_EDGE_TRIG:
  2358                           
  2359                           	psect	stringtext5
  2360     0690                     __pstringtext5:
  2361     0690                     _BUF_LENGTH:
  2362     0690  340B               	retlw	11
  2363     0691                     __end_of_BUF_LENGTH:
  2364                           
  2365                           	psect	stringtext6
  2366     0691                     __pstringtext6:
  2367     0691                     _UART_LEVEL:
  2368     0691  3419               	retlw	25
  2369     0692                     __end_of_UART_LEVEL:
  2370                           
  2371                           	psect	stringtext7
  2372     0692                     __pstringtext7:
  2373     0692                     _LOGIC_LEVEL:
  2374     0692  3410               	retlw	16
  2375     0693                     __end_of_LOGIC_LEVEL:
  2376                           
  2377                           	psect	stringtext8
  2378     0693                     __pstringtext8:
  2379     0693                     _DATA_LENGTH:
  2380     0693  348B               	retlw	139
  2381     0694                     __end_of_DATA_LENGTH:
  2382                           
  2383                           	psect	stringtext9
  2384     0694                     __pstringtext9:
  2385     0694                     _LIGHT_PID:
  2386     0694  34C8               	retlw	200
  2387     0695                     __end_of_LIGHT_PID:
  2388     000D                     _PORTBbits	set	13
  2389     001C                     _T2CONbits	set	28
  2390     001C                     _T2CON	set	28
  2391     001A                     _TMR2	set	26
  2392     001B                     _PR2	set	27
  2393     0015                     _TMR0	set	21
  2394     0019                     _T1GCONbits	set	25
  2395     0018                     _T1CONbits	set	24
  2396     0018                     _T1CON	set	24
  2397     0011                     _PIR1bits	set	17
  2398     0016                     _TMR1L	set	22
  2399     0017                     _TMR1H	set	23
  2400     0019                     _T1GCON	set	25
  2401     0013                     _PIR3bits	set	19
  2402     000B                     _INTCONbits	set	11
  2403     0095                     _OPTION_REG	set	149
  2404     0095                     _OPTION_REGbits	set	149
  2405     008E                     _TRISC	set	142
  2406     008D                     _TRISB	set	141
  2407     008C                     _TRISA	set	140
  2408     0090                     _TRISE	set	144
  2409     0093                     _PIE3bits	set	147
  2410     0097                     _WDTCON	set	151
  2411     0098                     _OSCTUNE	set	152
  2412     0099                     _OSCCON	set	153
  2413     04D6                     _PLLR	set	1238
  2414     010C                     _LATAbits	set	268
  2415     010E                     _LATCbits	set	270
  2416     011D                     _APFCON	set	285
  2417     010E                     _LATC	set	270
  2418     010D                     _LATB	set	269
  2419     010C                     _LATA	set	268
  2420     0110                     _LATE	set	272
  2421     0116                     _BORCON	set	278
  2422     018C                     _ANSELA	set	396
  2423     018D                     _ANSELB	set	397
  2424     020D                     _WPUB	set	525
  2425     0210                     _WPUE	set	528
  2426     029E                     _CCPTMRS0bits	set	670
  2427     0291                     _CCPR1L	set	657
  2428     0292                     _CCPR1H	set	658
  2429     0296                     _PSTR1CON	set	662
  2430     0294                     _PWM1CON	set	660
  2431     0295                     _ECCP1AS	set	661
  2432     0293                     _CCP1CON	set	659
  2433     0319                     _CCPR4H	set	793
  2434     0318                     _CCPR4L	set	792
  2435     031A                     _CCP4CON	set	794
  2436     0311                     _CCPR3L	set	785
  2437     0312                     _CCPR3H	set	786
  2438     0313                     _CCP3CON	set	787
  2439                           
  2440                           	psect	cinit
  2441     0028                     start_initialization:	
  2442                           ; #config settings
  2443                           
  2444     0028                     __initialization:
  2445                           
  2446                           ; Initialize objects allocated to BANK0
  2447     0028  3186  268C  3180   	fcall	__pidataBANK0	;fetch initializer
  2448     002B  00CD               	movwf	__pdataBANK0& (0+127)
  2449                           
  2450                           ; Clear objects allocated to COMMON
  2451     002C  01F0               	clrf	__pbssCOMMON& (0+127)
  2452     002D  01F1               	clrf	(__pbssCOMMON+1)& (0+127)
  2453     002E  01F2               	clrf	(__pbssCOMMON+2)& (0+127)
  2454     002F  01F3               	clrf	(__pbssCOMMON+3)& (0+127)
  2455     0030  01F4               	clrf	(__pbssCOMMON+4)& (0+127)
  2456     0031  01F5               	clrf	(__pbssCOMMON+5)& (0+127)
  2457                           
  2458                           ; Clear objects allocated to BANK0
  2459     0032  3020               	movlw	low __pbssBANK0
  2460     0033  0084               	movwf	4
  2461     0034  3000               	movlw	high __pbssBANK0
  2462     0035  0085               	movwf	5
  2463     0036  3026               	movlw	38
  2464     0037  3186  263C  3180   	fcall	clear_ram0
  2465     003A                     end_of_initialization:	
  2466                           ;End of C runtime variable initialization code
  2467                           
  2468     003A                     __end_of__initialization:
  2469     003A  107E               	bcf	int$flags,0	;clear compiler interrupt flag (level 1)
  2470     003B  0020               	movlb	0
  2471     003C  3184  2CEC         	ljmp	_main	;jump to C main() function
  2472                           
  2473                           	psect	bssCOMMON
  2474     0070                     __pbssCOMMON:
  2475     0070                     ECCP3_CallBack@negative_pulse_width_us:
  2476     0070                     	ds	1
  2477     0071                     ECCP3_CallBack@positive_pulse_width_us:
  2478     0071                     	ds	1
  2479     0072                     _rx_data:
  2480     0072                     	ds	1
  2481     0073                     _csFlag:
  2482     0073                     	ds	1
  2483     0074                     _D2:
  2484     0074                     	ds	1
  2485     0075                     _timer0ReloadVal:
  2486     0075                     	ds	1
  2487                           
  2488                           	psect	bssBANK0
  2489     0020                     __pbssBANK0:
  2490     0020                     _rx_buf:
  2491     0020                     	ds	11
  2492     002B                     ECCP3_CallBack@rising_edge_time:
  2493     002B                     	ds	2
  2494     002D                     ECCP3_CallBack@falling_edge_time:
  2495     002D                     	ds	2
  2496     002F                     ECCP3_CallBack@positive_pulse_width:
  2497     002F                     	ds	2
  2498     0031                     ECCP3_CallBack@negative_pulse_width:
  2499     0031                     	ds	2
  2500     0033                     TMR0_ISR@CountCallBack:
  2501     0033                     	ds	2
  2502     0035                     _TMR0_InterruptHandler:
  2503     0035                     	ds	2
  2504     0037                     _timer1ReloadVal:
  2505     0037                     	ds	2
  2506     0039                     ECCP3_CallBack@fStart_bit:
  2507     0039                     	ds	1
  2508     003A                     ECCP3_CallBack@fRise_edge:
  2509     003A                     	ds	1
  2510     003B                     ECCP3_CallBack@bit_cnt:
  2511     003B                     	ds	1
  2512     003C                     ECCP3_CallBack@diff_us:
  2513     003C                     	ds	1
  2514     003D                     receiver_frame_data@eReceiver_step:
  2515     003D                     	ds	1
  2516     003E                     _fLamp_RL_Side:
  2517     003E                     	ds	1
  2518     003F                     _fLamp_Conf:
  2519     003F                     	ds	1
  2520     0040                     _eLamp_even:
  2521     0040                     	ds	1
  2522     0041                     _positive_pulse_width_us_max:
  2523     0041                     	ds	1
  2524     0042                     _Communication_timer:
  2525     0042                     	ds	1
  2526     0043                     _fFrame_OK:
  2527     0043                     	ds	1
  2528     0044                     _fReceiver_Byte:
  2529     0044                     	ds	1
  2530     0045                     _D3:
  2531     0045                     	ds	1
  2532                           
  2533                           	psect	dataBANK0
  2534     004D                     __pdataBANK0:
  2535     004D                     _positive_pulse_width_us_min:
  2536     004D                     	ds	1
  2537                           
  2538                           	psect	clrtext
  2539     063C                     clear_ram0:	
  2540                           ;	Called with FSR0 containing the base address, and
  2541                           ;	WREG with the size to clear
  2542                           
  2543     063C  0064               	clrwdt	;clear the watchdog before getting into this loop
  2544     063D                     clrloop0:
  2545     063D  0180               	clrf	0	;clear RAM location pointed to by FSR
  2546     063E  3101               	addfsr 0,1
  2547     063F  0B89               	decfsz	9,f	;Have we reached the end of clearing yet?
  2548     0640  2E3D               	goto	clrloop0	;have we reached the end yet?
  2549     0641  3400               	retlw	0	;all done for this memory range, return
  2550                           
  2551                           	psect	cstackCOMMON
  2552     0076                     __pcstackCOMMON:
  2553     0076                     ?_PIN_MANAGER_Initialize:
  2554     0076                     ?_OSCILLATOR_Initialize:	
  2555                           ; 1 bytes @ 0x0
  2556                           
  2557     0076                     ?_WDT_Initialize:	
  2558                           ; 1 bytes @ 0x0
  2559                           
  2560     0076                     ?_EPWM1_Initialize:	
  2561                           ; 1 bytes @ 0x0
  2562                           
  2563     0076                     ?_PWM4_Initialize:	
  2564                           ; 1 bytes @ 0x0
  2565                           
  2566     0076                     ?_TMR2_Initialize:	
  2567                           ; 1 bytes @ 0x0
  2568                           
  2569     0076                     ?_ECCP3_Initialize:	
  2570                           ; 1 bytes @ 0x0
  2571                           
  2572     0076                     ?_TMR1_Initialize:	
  2573                           ; 1 bytes @ 0x0
  2574                           
  2575     0076                     ?_TMR0_Initialize:	
  2576                           ; 1 bytes @ 0x0
  2577                           
  2578     0076                     ?_TMR0_ISR:	
  2579                           ; 1 bytes @ 0x0
  2580                           
  2581     0076                     ?_ECCP3_CaptureISR:	
  2582                           ; 1 bytes @ 0x0
  2583                           
  2584     0076                     ?_TMR0_DefaultInterruptHandler:	
  2585                           ; 1 bytes @ 0x0
  2586                           
  2587     0076                     ??_TMR0_DefaultInterruptHandler:	
  2588                           ; 1 bytes @ 0x0
  2589                           
  2590     0076                     ?_TMR0_CallBack:	
  2591                           ; 1 bytes @ 0x0
  2592                           
  2593     0076                     ?_ECCP3_CallBack:	
  2594                           ; 1 bytes @ 0x0
  2595                           
  2596     0076                     ?_TMR0_10MS_Even:	
  2597                           ; 1 bytes @ 0x0
  2598                           
  2599     0076                     ??_TMR0_10MS_Even:	
  2600                           ; 1 bytes @ 0x0
  2601                           
  2602     0076                     ?_sofaware_initialize:	
  2603                           ; 1 bytes @ 0x0
  2604                           
  2605     0076                     ?_tundra_main:	
  2606                           ; 1 bytes @ 0x0
  2607                           
  2608     0076                     ?_P2_POS2_ON:	
  2609                           ; 1 bytes @ 0x0
  2610                           
  2611     0076                     ?_HIBEAM_OFF:	
  2612                           ; 1 bytes @ 0x0
  2613                           
  2614     0076                     ?_LOBEAM_ON:	
  2615                           ; 1 bytes @ 0x0
  2616                           
  2617     0076                     ?_POS_ON_HiPe:	
  2618                           ; 1 bytes @ 0x0
  2619                           
  2620     0076                     ?_LOBEAM_OFF:	
  2621                           ; 1 bytes @ 0x0
  2622                           
  2623     0076                     ?_P2_POS2_OFF:	
  2624                           ; 1 bytes @ 0x0
  2625                           
  2626     0076                     ?_DRL_POS_OFF_HiPe:	
  2627                           ; 1 bytes @ 0x0
  2628                           
  2629     0076                     ?_Is_HiPe:	
  2630                           ; 1 bytes @ 0x0
  2631                           
  2632     0076                     ?_LED_control_HiPe:	
  2633                           ; 1 bytes @ 0x0
  2634                           
  2635     0076                     ?_LED_control_LoPe:	
  2636                           ; 1 bytes @ 0x0
  2637                           
  2638     0076                     ?_DRL_ON_HiPe:	
  2639                           ; 1 bytes @ 0x0
  2640                           
  2641     0076                     ?_HIBEAM_ON:	
  2642                           ; 1 bytes @ 0x0
  2643                           
  2644     0076                     ?_SYSTEM_Initialize:	
  2645                           ; 1 bytes @ 0x0
  2646                           
  2647     0076                     ?_INTERRUPT_InterruptManager:	
  2648                           ; 1 bytes @ 0x0
  2649                           
  2650     0076                     ?_TMR1_StartTimer:	
  2651                           ; 1 bytes @ 0x0
  2652                           
  2653     0076                     ?_TMR1_StopTimer:	
  2654                           ; 1 bytes @ 0x0
  2655                           
  2656     0076                     ?_TMR1_Reload:	
  2657                           ; 1 bytes @ 0x0
  2658                           
  2659     0076                     ?_TMR1_StartSinglePulseAcquisition:	
  2660                           ; 1 bytes @ 0x0
  2661                           
  2662     0076                     ?_TMR1_CheckGateValueStatus:	
  2663                           ; 1 bytes @ 0x0
  2664                           
  2665     0076                     ?_TMR1_HasOverflowOccured:	
  2666                           ; 1 bytes @ 0x0
  2667                           
  2668     0076                     ?_PIN_MANAGER_IOC:	
  2669                           ; 1 bytes @ 0x0
  2670                           
  2671     0076                     ?_TMR0_ReadTimer:	
  2672                           ; 1 bytes @ 0x0
  2673                           
  2674     0076                     ?_TMR0_WriteTimer:	
  2675                           ; 1 bytes @ 0x0
  2676                           
  2677     0076                     ?_TMR0_Reload:	
  2678                           ; 1 bytes @ 0x0
  2679                           
  2680     0076                     ?_TMR2_StartTimer:	
  2681                           ; 1 bytes @ 0x0
  2682                           
  2683     0076                     ?_TMR2_StopTimer:	
  2684                           ; 1 bytes @ 0x0
  2685                           
  2686     0076                     ?_TMR2_ReadTimer:	
  2687                           ; 1 bytes @ 0x0
  2688                           
  2689     0076                     ?_TMR2_WriteTimer:	
  2690                           ; 1 bytes @ 0x0
  2691                           
  2692     0076                     ?_TMR2_LoadPeriodRegister:	
  2693                           ; 1 bytes @ 0x0
  2694                           
  2695     0076                     ?_TMR2_HasOverflowOccured:	
  2696                           ; 1 bytes @ 0x0
  2697                           
  2698     0076                     ?_Clear_No_Call_Warning:	
  2699                           ; 1 bytes @ 0x0
  2700                           
  2701     0076                     ?_analysis_of_data:	
  2702                           ; 1 bytes @ 0x0
  2703                           
  2704     0076                     ?_check_unlock_even:	
  2705                           ; 1 bytes @ 0x0
  2706                           
  2707     0076                     ?_check_lamp_off_even:	
  2708                           ; 1 bytes @ 0x0
  2709                           
  2710     0076                     ?_to_do_signal_timeout:	
  2711                           ; 1 bytes @ 0x0
  2712                           
  2713     0076                     ?_to_do_unlock:	
  2714                           ; 1 bytes @ 0x0
  2715                           
  2716     0076                     ?_to_do_lamp_off:	
  2717                           ; 1 bytes @ 0x0
  2718                           
  2719     0076                     ?_LED_control:	
  2720                           ; 1 bytes @ 0x0
  2721                           
  2722     0076                     ?_receiver_frame_data:	
  2723                           ; 1 bytes @ 0x0
  2724                           
  2725     0076                     ?_TMR1_ReadTimer:	
  2726                           ; 1 bytes @ 0x0
  2727                           
  2728     0076                     ?_main:	
  2729                           ; 2 bytes @ 0x0
  2730                           
  2731     0076                     ECCP3_CallBack@capturedValue:	
  2732                           ; 2 bytes @ 0x0
  2733                           
  2734                           
  2735                           ; 2 bytes @ 0x0
  2736     0076                     	ds	1
  2737     0077                     ??_TMR0_ISR:
  2738     0077                     ??_TMR0_CallBack:	
  2739                           ; 1 bytes @ 0x1
  2740                           
  2741                           
  2742                           ; 1 bytes @ 0x1
  2743     0077                     	ds	1
  2744     0078                     ??_ECCP3_CallBack:
  2745                           
  2746                           ; 1 bytes @ 0x2
  2747     0078                     	ds	2
  2748     007A                     ??_ECCP3_CaptureISR:
  2749     007A                     ECCP3_CaptureISR@module:	
  2750                           ; 1 bytes @ 0x4
  2751                           
  2752                           
  2753                           ; 2 bytes @ 0x4
  2754     007A                     	ds	2
  2755     007C                     ??_INTERRUPT_InterruptManager:
  2756                           
  2757                           	psect	cstackBANK0
  2758     0046                     __pcstackBANK0:	
  2759                           ; 1 bytes @ 0x6
  2760                           
  2761     0046                     ??_PIN_MANAGER_Initialize:
  2762     0046                     ??_OSCILLATOR_Initialize:	
  2763                           ; 1 bytes @ 0x0
  2764                           
  2765     0046                     ??_WDT_Initialize:	
  2766                           ; 1 bytes @ 0x0
  2767                           
  2768     0046                     ??_EPWM1_Initialize:	
  2769                           ; 1 bytes @ 0x0
  2770                           
  2771     0046                     ??_PWM4_Initialize:	
  2772                           ; 1 bytes @ 0x0
  2773                           
  2774     0046                     ??_TMR2_Initialize:	
  2775                           ; 1 bytes @ 0x0
  2776                           
  2777     0046                     ??_ECCP3_Initialize:	
  2778                           ; 1 bytes @ 0x0
  2779                           
  2780     0046                     ??_TMR1_Initialize:	
  2781                           ; 1 bytes @ 0x0
  2782                           
  2783     0046                     ?_TMR0_SetInterruptHandler:	
  2784                           ; 1 bytes @ 0x0
  2785                           
  2786     0046                     ??_P2_POS2_ON:	
  2787                           ; 1 bytes @ 0x0
  2788                           
  2789     0046                     ??_HIBEAM_OFF:	
  2790                           ; 1 bytes @ 0x0
  2791                           
  2792     0046                     ??_P2_POS2_OFF:	
  2793                           ; 1 bytes @ 0x0
  2794                           
  2795     0046                     ??_Is_HiPe:	
  2796                           ; 1 bytes @ 0x0
  2797                           
  2798     0046                     ??_HIBEAM_ON:	
  2799                           ; 1 bytes @ 0x0
  2800                           
  2801     0046                     ??_TMR1_StartTimer:	
  2802                           ; 1 bytes @ 0x0
  2803                           
  2804     0046                     ??_TMR1_StopTimer:	
  2805                           ; 1 bytes @ 0x0
  2806                           
  2807     0046                     ??_TMR1_ReadTimer:	
  2808                           ; 1 bytes @ 0x0
  2809                           
  2810     0046                     ?_TMR1_WriteTimer:	
  2811                           ; 1 bytes @ 0x0
  2812                           
  2813     0046                     ??_TMR1_StartSinglePulseAcquisition:	
  2814                           ; 1 bytes @ 0x0
  2815                           
  2816     0046                     ??_TMR1_CheckGateValueStatus:	
  2817                           ; 1 bytes @ 0x0
  2818                           
  2819     0046                     ??_TMR1_HasOverflowOccured:	
  2820                           ; 1 bytes @ 0x0
  2821                           
  2822     0046                     ??_PIN_MANAGER_IOC:	
  2823                           ; 1 bytes @ 0x0
  2824                           
  2825     0046                     ??_TMR0_ReadTimer:	
  2826                           ; 1 bytes @ 0x0
  2827                           
  2828     0046                     ??_TMR0_WriteTimer:	
  2829                           ; 1 bytes @ 0x0
  2830                           
  2831     0046                     ??_TMR0_Reload:	
  2832                           ; 1 bytes @ 0x0
  2833                           
  2834     0046                     ??_TMR2_StartTimer:	
  2835                           ; 1 bytes @ 0x0
  2836                           
  2837     0046                     ??_TMR2_StopTimer:	
  2838                           ; 1 bytes @ 0x0
  2839                           
  2840     0046                     ??_TMR2_ReadTimer:	
  2841                           ; 1 bytes @ 0x0
  2842                           
  2843     0046                     ??_TMR2_WriteTimer:	
  2844                           ; 1 bytes @ 0x0
  2845                           
  2846     0046                     ??_TMR2_LoadPeriodRegister:	
  2847                           ; 1 bytes @ 0x0
  2848                           
  2849     0046                     ??_TMR2_HasOverflowOccured:	
  2850                           ; 1 bytes @ 0x0
  2851                           
  2852     0046                     ?_EPWM1_LoadDutyValue:	
  2853                           ; 1 bytes @ 0x0
  2854                           
  2855     0046                     ?_PWM4_LoadDutyValue:	
  2856                           ; 1 bytes @ 0x0
  2857                           
  2858     0046                     ??_analysis_of_data:	
  2859                           ; 1 bytes @ 0x0
  2860                           
  2861     0046                     ??_check_unlock_even:	
  2862                           ; 1 bytes @ 0x0
  2863                           
  2864     0046                     ??_check_lamp_off_even:	
  2865                           ; 1 bytes @ 0x0
  2866                           
  2867     0046                     ??_receiver_frame_data:	
  2868                           ; 1 bytes @ 0x0
  2869                           
  2870     0046                     TMR1_ReadTimer@readValHigh:	
  2871                           ; 1 bytes @ 0x0
  2872                           
  2873     0046                     TMR0_WriteTimer@timerVal:	
  2874                           ; 1 bytes @ 0x0
  2875                           
  2876     0046                     TMR2_WriteTimer@timerVal:	
  2877                           ; 1 bytes @ 0x0
  2878                           
  2879     0046                     TMR2_LoadPeriodRegister@periodVal:	
  2880                           ; 1 bytes @ 0x0
  2881                           
  2882     0046                     TMR2_HasOverflowOccured@status:	
  2883                           ; 1 bytes @ 0x0
  2884                           
  2885     0046                     analysis_of_data@crc8:	
  2886                           ; 1 bytes @ 0x0
  2887                           
  2888     0046                     TMR1_WriteTimer@timerVal:	
  2889                           ; 1 bytes @ 0x0
  2890                           
  2891     0046                     TMR0_SetInterruptHandler@InterruptHandler:	
  2892                           ; 2 bytes @ 0x0
  2893                           
  2894     0046                     EPWM1_LoadDutyValue@dutyValue:	
  2895                           ; 2 bytes @ 0x0
  2896                           
  2897     0046                     PWM4_LoadDutyValue@dutyValue:	
  2898                           ; 2 bytes @ 0x0
  2899                           
  2900                           
  2901                           ; 2 bytes @ 0x0
  2902     0046                     	ds	1
  2903     0047                     TMR1_ReadTimer@readValLow:
  2904     0047                     analysis_of_data@temp_index:	
  2905                           ; 1 bytes @ 0x1
  2906                           
  2907                           
  2908                           ; 1 bytes @ 0x1
  2909     0047                     	ds	1
  2910     0048                     ??_TMR0_Initialize:
  2911     0048                     ??_TMR0_SetInterruptHandler:	
  2912                           ; 1 bytes @ 0x2
  2913                           
  2914     0048                     ??_SYSTEM_Initialize:	
  2915                           ; 1 bytes @ 0x2
  2916                           
  2917     0048                     ??_TMR1_WriteTimer:	
  2918                           ; 1 bytes @ 0x2
  2919                           
  2920     0048                     ??_TMR1_Reload:	
  2921                           ; 1 bytes @ 0x2
  2922                           
  2923     0048                     ??_EPWM1_LoadDutyValue:	
  2924                           ; 1 bytes @ 0x2
  2925                           
  2926     0048                     ??_PWM4_LoadDutyValue:	
  2927                           ; 1 bytes @ 0x2
  2928                           
  2929     0048                     ??_Clear_No_Call_Warning:	
  2930                           ; 1 bytes @ 0x2
  2931                           
  2932                           
  2933                           ; 1 bytes @ 0x2
  2934     0048                     	ds	2
  2935     004A                     ??_sofaware_initialize:
  2936     004A                     ??_LOBEAM_ON:	
  2937                           ; 1 bytes @ 0x4
  2938                           
  2939     004A                     ??_POS_ON_HiPe:	
  2940                           ; 1 bytes @ 0x4
  2941                           
  2942     004A                     ??_LOBEAM_OFF:	
  2943                           ; 1 bytes @ 0x4
  2944                           
  2945     004A                     ??_DRL_POS_OFF_HiPe:	
  2946                           ; 1 bytes @ 0x4
  2947                           
  2948     004A                     ??_LED_control_HiPe:	
  2949                           ; 1 bytes @ 0x4
  2950                           
  2951     004A                     ??_LED_control_LoPe:	
  2952                           ; 1 bytes @ 0x4
  2953                           
  2954     004A                     ??_DRL_ON_HiPe:	
  2955                           ; 1 bytes @ 0x4
  2956                           
  2957     004A                     ??_to_do_signal_timeout:	
  2958                           ; 1 bytes @ 0x4
  2959                           
  2960     004A                     ??_to_do_unlock:	
  2961                           ; 1 bytes @ 0x4
  2962                           
  2963     004A                     ??_to_do_lamp_off:	
  2964                           ; 1 bytes @ 0x4
  2965                           
  2966                           
  2967                           ; 1 bytes @ 0x4
  2968     004A                     	ds	1
  2969     004B                     ??_tundra_main:
  2970     004B                     ??_LED_control:	
  2971                           ; 1 bytes @ 0x5
  2972                           
  2973                           
  2974                           ; 1 bytes @ 0x5
  2975     004B                     	ds	2
  2976     004D                     ??_main:
  2977                           
  2978                           	psect	maintext
  2979     04EC                     __pmaintext:	
  2980                           ; 1 bytes @ 0x7
  2981 ;;
  2982 ;;Main: autosize = 0, tempsize = 0, incstack = 0, save=0
  2983 ;;
  2984 ;; *************** function _main *****************
  2985 ;; Defined at:
  2986 ;;		line 60 in file "main.c"
  2987 ;; Parameters:    Size  Location     Type
  2988 ;;		None
  2989 ;; Auto vars:     Size  Location     Type
  2990 ;;		None
  2991 ;; Return value:  Size  Location     Type
  2992 ;;                  2  300[None  ] int 
  2993 ;; Registers used:
  2994 ;;		wreg, fsr0l, fsr0h, status,2, status,0, pclath, cstack
  2995 ;; Tracked objects:
  2996 ;;		On entry : B1F/0
  2997 ;;		On exit  : 0/0
  2998 ;;		Unchanged: 0/0
  2999 ;; Data sizes:     COMMON   BANK0   BANK1   BANK2   BANK3   BANK4   BANK5   BANK6
  3000 ;;      Params:         0       0       0       0       0       0       0       0
  3001 ;;      Locals:         0       0       0       0       0       0       0       0
  3002 ;;      Temps:          0       0       0       0       0       0       0       0
  3003 ;;      Totals:         0       0       0       0       0       0       0       0
  3004 ;;Total ram usage:        0 bytes
  3005 ;; Hardware stack levels required when called: 9
  3006 ;; This function calls:
  3007 ;;		_SYSTEM_Initialize
  3008 ;;		_TMR0_SetInterruptHandler
  3009 ;;		_sofaware_initialize
  3010 ;;		_tundra_main
  3011 ;; This function is called by:
  3012 ;;		Startup code after reset
  3013 ;; This function uses a non-reentrant model
  3014 ;;
  3015                           
  3016     04EC                     _main:	
  3017                           ;psect for function _main
  3018                           
  3019     04EC                     l3639:	
  3020                           ;incstack = 0
  3021                           ; Regs used in _main: [wreg-fsr0h+status,2+status,0+pclath+cstack]
  3022                           
  3023                           
  3024                           ;main.c: 62:   SYSTEM_Initialize();
  3025     04EC  3184  249E  3184   	fcall	_SYSTEM_Initialize
  3026                           
  3027                           ;main.c: 63:   TMR0_SetInterruptHandler(TMR0_10MS_Even);
  3028     04EF  3086               	movlw	low _TMR0_10MS_Even
  3029     04F0  0020               	movlb	0	; select bank0
  3030     04F1  00C6               	movwf	TMR0_SetInterruptHandler@InterruptHandler
  3031     04F2  3005               	movlw	high _TMR0_10MS_Even
  3032     04F3  00C7               	movwf	TMR0_SetInterruptHandler@InterruptHandler+1
  3033     04F4  3186  2648  3184   	fcall	_TMR0_SetInterruptHandler
  3034                           
  3035                           ;main.c: 64:   sofaware_initialize();
  3036     04F7  3184  24BA  3184   	fcall	_sofaware_initialize
  3037     04FA                     l3641:
  3038                           
  3039                           ;main.c: 67:   (INTCONbits.GIE = 1);
  3040     04FA  178B               	bsf	11,7	;volatile
  3041     04FB                     l3643:
  3042                           
  3043                           ;main.c: 69:   (INTCONbits.PEIE = 1);
  3044     04FB  170B               	bsf	11,6	;volatile
  3045     04FC                     l3645:
  3046                           
  3047                           ;main.c: 73:     tundra_main();
  3048     04FC  3184  240D  3184   	fcall	_tundra_main
  3049     04FF  2CFC               	goto	l3645
  3050     0500  3180  2826         	ljmp	start
  3051     0502                     __end_of_main:
  3052                           
  3053                           	psect	text1
  3054     040D                     __ptext1:	
  3055 ;; *************** function _tundra_main *****************
  3056 ;; Defined at:
  3057 ;;		line 605 in file "tundra.c"
  3058 ;; Parameters:    Size  Location     Type
  3059 ;;		None
  3060 ;; Auto vars:     Size  Location     Type
  3061 ;;		None
  3062 ;; Return value:  Size  Location     Type
  3063 ;;                  1    wreg      void 
  3064 ;; Registers used:
  3065 ;;		wreg, fsr0l, fsr0h, status,2, status,0, pclath, cstack
  3066 ;; Tracked objects:
  3067 ;;		On entry : 0/0
  3068 ;;		On exit  : 0/0
  3069 ;;		Unchanged: 0/0
  3070 ;; Data sizes:     COMMON   BANK0   BANK1   BANK2   BANK3   BANK4   BANK5   BANK6
  3071 ;;      Params:         0       0       0       0       0       0       0       0
  3072 ;;      Locals:         0       0       0       0       0       0       0       0
  3073 ;;      Temps:          0       2       0       0       0       0       0       0
  3074 ;;      Totals:         0       2       0       0       0       0       0       0
  3075 ;;Total ram usage:        2 bytes
  3076 ;; Hardware stack levels used: 1
  3077 ;; Hardware stack levels required when called: 8
  3078 ;; This function calls:
  3079 ;;		_LED_control
  3080 ;;		_analysis_of_data
  3081 ;;		_check_lamp_off_even
  3082 ;;		_check_unlock_even
  3083 ;;		_receiver_frame_data
  3084 ;;		_to_do_lamp_off
  3085 ;;		_to_do_signal_timeout
  3086 ;;		_to_do_unlock
  3087 ;; This function is called by:
  3088 ;;		_main
  3089 ;; This function uses a non-reentrant model
  3090 ;;
  3091                           
  3092     040D                     _tundra_main:	
  3093                           ;psect for function _tundra_main
  3094                           
  3095     040D                     l3617:	
  3096                           ;incstack = 0
  3097                           ; Regs used in _tundra_main: [wreg-fsr0h+status,2+status,0+pclath+cstack]
  3098                           
  3099                           
  3100                           ;tundra.c: 606:   receiver_frame_data();
  3101     040D  3183  230B  3184   	fcall	_receiver_frame_data
  3102                           
  3103                           ;tundra.c: 607:   analysis_of_data();
  3104     0410  3183  2379  3184   	fcall	_analysis_of_data
  3105     0413                     l3619:
  3106                           
  3107                           ;tundra.c: 608:   check_unlock_even();
  3108     0413  3185  2516  3184   	fcall	_check_unlock_even
  3109     0416                     l3621:
  3110                           
  3111                           ;tundra.c: 609:   check_lamp_off_even();
  3112     0416  3185  2527  3184   	fcall	_check_lamp_off_even
  3113                           
  3114                           ;tundra.c: 611:   switch (eLamp_even) {
  3115     0419  2C2C               	goto	l3633
  3116     041A                     l3623:
  3117                           
  3118                           ;tundra.c: 613:     LED_control();
  3119     041A  3185  2549  3184   	fcall	_LED_control
  3120                           
  3121                           ;tundra.c: 614:     break;
  3122     041D  2C46               	goto	l615
  3123     041E                     l3625:
  3124                           
  3125                           ;tundra.c: 616:     to_do_signal_timeout();
  3126     041E  3185  2568  3184   	fcall	_to_do_signal_timeout
  3127                           
  3128                           ;tundra.c: 617:     break;
  3129     0421  2C46               	goto	l615
  3130     0422                     l3627:
  3131                           
  3132                           ;tundra.c: 619:     to_do_unlock();
  3133     0422  3185  2559  3184   	fcall	_to_do_unlock
  3134                           
  3135                           ;tundra.c: 620:     break;
  3136     0425  2C46               	goto	l615
  3137     0426                     l3629:
  3138                           
  3139                           ;tundra.c: 622:     to_do_lamp_off();
  3140     0426  3185  2577  3184   	fcall	_to_do_lamp_off
  3141                           
  3142                           ;tundra.c: 623:     break;
  3143     0429  2C46               	goto	l615
  3144     042A                     l613:	
  3145                           ;tundra.c: 624:   case eEVEN_SIGNAL_NOTHING:
  3146                           
  3147                           
  3148                           ;tundra.c: 625:     __nop();
  3149     042A  0000               	nop
  3150                           
  3151                           ;tundra.c: 626:     break;
  3152     042B  2C46               	goto	l615
  3153     042C                     l3633:
  3154     042C  0020               	movlb	0	; select bank0
  3155     042D  0840               	movf	_eLamp_even,w
  3156     042E  00CB               	movwf	??_tundra_main
  3157     042F  01CC               	clrf	??_tundra_main+1
  3158                           
  3159                           ; Switch on 2 bytes has been partitioned into a top level switch of size 1, and 1 sub-sw
      +                          itches
  3160                           ; Switch size 1, requested type "simple"
  3161                           ; Number of cases is 1, Range of values is 0 to 0
  3162                           ; switch strategies available:
  3163                           ; Name         Instructions Cycles
  3164                           ; simple_byte            4     3 (average)
  3165                           ; direct_byte            8     6 (fixed)
  3166                           ; jumptable            260     6 (fixed)
  3167                           ;	Chosen strategy is simple_byte
  3168     0430  084C               	movf	??_tundra_main+1,w
  3169     0431  3A00               	xorlw	0	; case 0
  3170     0432  1903               	skipnz
  3171     0433  2C35               	goto	l3697
  3172     0434  2C2A               	goto	l613
  3173     0435                     l3697:
  3174                           
  3175                           ; Switch size 1, requested type "simple"
  3176                           ; Number of cases is 5, Range of values is 0 to 4
  3177                           ; switch strategies available:
  3178                           ; Name         Instructions Cycles
  3179                           ; direct_byte           16     6 (fixed)
  3180                           ; simple_byte           16     9 (average)
  3181                           ; jumptable            260     6 (fixed)
  3182                           ;	Chosen strategy is simple_byte
  3183     0435  084B               	movf	??_tundra_main,w
  3184     0436  3A00               	xorlw	0	; case 0
  3185     0437  1903               	skipnz
  3186     0438  2C2A               	goto	l613
  3187     0439  3A01               	xorlw	1	; case 1
  3188     043A  1903               	skipnz
  3189     043B  2C1A               	goto	l3623
  3190     043C  3A03               	xorlw	3	; case 2
  3191     043D  1903               	skipnz
  3192     043E  2C1E               	goto	l3625
  3193     043F  3A01               	xorlw	1	; case 3
  3194     0440  1903               	skipnz
  3195     0441  2C22               	goto	l3627
  3196     0442  3A07               	xorlw	7	; case 4
  3197     0443  1903               	skipnz
  3198     0444  2C26               	goto	l3629
  3199     0445  2C2A               	goto	l613
  3200     0446                     l615:
  3201     0446  0008               	return
  3202     0447                     __end_of_tundra_main:
  3203                           
  3204                           	psect	text2
  3205     0559                     __ptext2:	
  3206 ;; *************** function _to_do_unlock *****************
  3207 ;; Defined at:
  3208 ;;		line 261 in file "tundra.c"
  3209 ;; Parameters:    Size  Location     Type
  3210 ;;		None
  3211 ;; Auto vars:     Size  Location     Type
  3212 ;;		None
  3213 ;; Return value:  Size  Location     Type
  3214 ;;                  1    wreg      void 
  3215 ;; Registers used:
  3216 ;;		wreg, status,2, status,0, pclath, cstack
  3217 ;; Tracked objects:
  3218 ;;		On entry : 0/0
  3219 ;;		On exit  : 0/0
  3220 ;;		Unchanged: 0/0
  3221 ;; Data sizes:     COMMON   BANK0   BANK1   BANK2   BANK3   BANK4   BANK5   BANK6
  3222 ;;      Params:         0       0       0       0       0       0       0       0
  3223 ;;      Locals:         0       0       0       0       0       0       0       0
  3224 ;;      Temps:          0       0       0       0       0       0       0       0
  3225 ;;      Totals:         0       0       0       0       0       0       0       0
  3226 ;;Total ram usage:        0 bytes
  3227 ;; Hardware stack levels used: 1
  3228 ;; Hardware stack levels required when called: 6
  3229 ;; This function calls:
  3230 ;;		_HIBEAM_OFF
  3231 ;;		_LOBEAM_OFF
  3232 ;;		_P2_POS2_ON
  3233 ;;		_POS_ON_HiPe
  3234 ;; This function is called by:
  3235 ;;		_tundra_main
  3236 ;; This function uses a non-reentrant model
  3237 ;;
  3238                           
  3239     0559                     _to_do_unlock:	
  3240                           ;psect for function _to_do_unlock
  3241                           
  3242     0559                     l3517:	
  3243                           ;incstack = 0
  3244                           ; Regs used in _to_do_unlock: [wreg+status,2+status,0+pclath+cstack]
  3245                           
  3246                           
  3247                           ;tundra.c: 263:   P2_POS2_ON();
  3248     0559  3186  2665  3185   	fcall	_P2_POS2_ON
  3249                           
  3250                           ;tundra.c: 264:   HIBEAM_OFF();
  3251     055C  3186  266E  3185   	fcall	_HIBEAM_OFF
  3252     055F                     l3519:
  3253                           
  3254                           ;tundra.c: 265:   LOBEAM_OFF();
  3255     055F  3186  2624  3185   	fcall	_LOBEAM_OFF
  3256     0562                     l3521:
  3257                           
  3258                           ;tundra.c: 266:   POS_ON_HiPe();
  3259     0562  3185  25F7  3185   	fcall	_POS_ON_HiPe
  3260     0565                     l3523:
  3261                           
  3262                           ;tundra.c: 267:   eLamp_even = eEVEN_SIGNAL_NOTHING;
  3263     0565  0020               	movlb	0	; select bank0
  3264     0566  01C0               	clrf	_eLamp_even
  3265     0567                     l465:
  3266     0567  0008               	return
  3267     0568                     __end_of_to_do_unlock:
  3268                           
  3269                           	psect	text3
  3270     0568                     __ptext3:	
  3271 ;; *************** function _to_do_signal_timeout *****************
  3272 ;; Defined at:
  3273 ;;		line 250 in file "tundra.c"
  3274 ;; Parameters:    Size  Location     Type
  3275 ;;		None
  3276 ;; Auto vars:     Size  Location     Type
  3277 ;;		None
  3278 ;; Return value:  Size  Location     Type
  3279 ;;                  1    wreg      void 
  3280 ;; Registers used:
  3281 ;;		wreg, status,2, status,0, pclath, cstack
  3282 ;; Tracked objects:
  3283 ;;		On entry : 0/0
  3284 ;;		On exit  : 0/0
  3285 ;;		Unchanged: 0/0
  3286 ;; Data sizes:     COMMON   BANK0   BANK1   BANK2   BANK3   BANK4   BANK5   BANK6
  3287 ;;      Params:         0       0       0       0       0       0       0       0
  3288 ;;      Locals:         0       0       0       0       0       0       0       0
  3289 ;;      Temps:          0       0       0       0       0       0       0       0
  3290 ;;      Totals:         0       0       0       0       0       0       0       0
  3291 ;;Total ram usage:        0 bytes
  3292 ;; Hardware stack levels used: 1
  3293 ;; Hardware stack levels required when called: 6
  3294 ;; This function calls:
  3295 ;;		_HIBEAM_OFF
  3296 ;;		_LOBEAM_ON
  3297 ;;		_P2_POS2_ON
  3298 ;;		_POS_ON_HiPe
  3299 ;; This function is called by:
  3300 ;;		_tundra_main
  3301 ;; This function uses a non-reentrant model
  3302 ;;
  3303                           
  3304     0568                     _to_do_signal_timeout:	
  3305                           ;psect for function _to_do_signal_timeout
  3306                           
  3307     0568                     l3509:	
  3308                           ;incstack = 0
  3309                           ; Regs used in _to_do_signal_timeout: [wreg+status,2+status,0+pclath+cstack]
  3310                           
  3311                           
  3312                           ;tundra.c: 253:   P2_POS2_ON();
  3313     0568  3186  2665  3185   	fcall	_P2_POS2_ON
  3314                           
  3315                           ;tundra.c: 254:   HIBEAM_OFF();
  3316     056B  3186  266E  3185   	fcall	_HIBEAM_OFF
  3317     056E                     l3511:
  3318                           
  3319                           ;tundra.c: 255:   LOBEAM_ON();
  3320     056E  3186  2600  3185   	fcall	_LOBEAM_ON
  3321     0571                     l3513:
  3322                           
  3323                           ;tundra.c: 256:   POS_ON_HiPe();
  3324     0571  3185  25F7  3185   	fcall	_POS_ON_HiPe
  3325     0574                     l3515:
  3326                           
  3327                           ;tundra.c: 257:   eLamp_even = eEVEN_SIGNAL_NOTHING;
  3328     0574  0020               	movlb	0	; select bank0
  3329     0575  01C0               	clrf	_eLamp_even
  3330     0576                     l462:
  3331     0576  0008               	return
  3332     0577                     __end_of_to_do_signal_timeout:
  3333                           
  3334                           	psect	text4
  3335     0577                     __ptext4:	
  3336 ;; *************** function _to_do_lamp_off *****************
  3337 ;; Defined at:
  3338 ;;		line 271 in file "tundra.c"
  3339 ;; Parameters:    Size  Location     Type
  3340 ;;		None
  3341 ;; Auto vars:     Size  Location     Type
  3342 ;;		None
  3343 ;; Return value:  Size  Location     Type
  3344 ;;                  1    wreg      void 
  3345 ;; Registers used:
  3346 ;;		wreg, status,2, status,0, pclath, cstack
  3347 ;; Tracked objects:
  3348 ;;		On entry : 0/0
  3349 ;;		On exit  : 0/0
  3350 ;;		Unchanged: 0/0
  3351 ;; Data sizes:     COMMON   BANK0   BANK1   BANK2   BANK3   BANK4   BANK5   BANK6
  3352 ;;      Params:         0       0       0       0       0       0       0       0
  3353 ;;      Locals:         0       0       0       0       0       0       0       0
  3354 ;;      Temps:          0       0       0       0       0       0       0       0
  3355 ;;      Totals:         0       0       0       0       0       0       0       0
  3356 ;;Total ram usage:        0 bytes
  3357 ;; Hardware stack levels used: 1
  3358 ;; Hardware stack levels required when called: 6
  3359 ;; This function calls:
  3360 ;;		_DRL_POS_OFF_HiPe
  3361 ;;		_HIBEAM_OFF
  3362 ;;		_LOBEAM_OFF
  3363 ;;		_P2_POS2_OFF
  3364 ;; This function is called by:
  3365 ;;		_tundra_main
  3366 ;; This function uses a non-reentrant model
  3367 ;;
  3368                           
  3369     0577                     _to_do_lamp_off:	
  3370                           ;psect for function _to_do_lamp_off
  3371                           
  3372     0577                     l3525:	
  3373                           ;incstack = 0
  3374                           ; Regs used in _to_do_lamp_off: [wreg+status,2+status,0+pclath+cstack]
  3375                           
  3376                           
  3377                           ;tundra.c: 273:   P2_POS2_OFF();
  3378     0577  3186  2668  3185   	fcall	_P2_POS2_OFF
  3379     057A                     l3527:
  3380                           
  3381                           ;tundra.c: 274:   LOBEAM_OFF();
  3382     057A  3186  2624  3185   	fcall	_LOBEAM_OFF
  3383     057D                     l3529:
  3384                           
  3385                           ;tundra.c: 275:   HIBEAM_OFF();
  3386     057D  3186  266E  3185   	fcall	_HIBEAM_OFF
  3387                           
  3388                           ;tundra.c: 276:   DRL_POS_OFF_HiPe();
  3389     0580  3186  262C  3185   	fcall	_DRL_POS_OFF_HiPe
  3390     0583                     l3531:
  3391                           
  3392                           ;tundra.c: 277:   eLamp_even = eEVEN_SIGNAL_NOTHING;
  3393     0583  0020               	movlb	0	; select bank0
  3394     0584  01C0               	clrf	_eLamp_even
  3395     0585                     l468:
  3396     0585  0008               	return
  3397     0586                     __end_of_to_do_lamp_off:
  3398                           
  3399                           	psect	text5
  3400     030B                     __ptext5:	
  3401 ;; *************** function _receiver_frame_data *****************
  3402 ;; Defined at:
  3403 ;;		line 425 in file "tundra.c"
  3404 ;; Parameters:    Size  Location     Type
  3405 ;;		None
  3406 ;; Auto vars:     Size  Location     Type
  3407 ;;		None
  3408 ;; Return value:  Size  Location     Type
  3409 ;;                  1    wreg      void 
  3410 ;; Registers used:
  3411 ;;		wreg, fsr0l, fsr0h, status,2, status,0
  3412 ;; Tracked objects:
  3413 ;;		On entry : 0/0
  3414 ;;		On exit  : 0/0
  3415 ;;		Unchanged: 0/0
  3416 ;; Data sizes:     COMMON   BANK0   BANK1   BANK2   BANK3   BANK4   BANK5   BANK6
  3417 ;;      Params:         0       0       0       0       0       0       0       0
  3418 ;;      Locals:         0       0       0       0       0       0       0       0
  3419 ;;      Temps:          0       2       0       0       0       0       0       0
  3420 ;;      Totals:         0       2       0       0       0       0       0       0
  3421 ;;Total ram usage:        2 bytes
  3422 ;; Hardware stack levels used: 1
  3423 ;; Hardware stack levels required when called: 4
  3424 ;; This function calls:
  3425 ;;		Nothing
  3426 ;; This function is called by:
  3427 ;;		_tundra_main
  3428 ;; This function uses a non-reentrant model
  3429 ;;
  3430                           
  3431     030B                     _receiver_frame_data:	
  3432                           ;psect for function _receiver_frame_data
  3433                           
  3434     030B                     l3539:	
  3435                           ;incstack = 0
  3436                           ; Regs used in _receiver_frame_data: [wreg-fsr0h+status,2+status,0]
  3437                           
  3438                           
  3439                           ;tundra.c: 426:   static eRECEIVE_STATE eReceiver_step = eRECEIVE_PID;;tundra.c: 428:   
      +                          if (!fReceiver_Byte) {
  3440     030B  0020               	movlb	0	; select bank0
  3441     030C  0844               	movf	_fReceiver_Byte,w	;volatile
  3442     030D  1D03               	btfss	3,2
  3443     030E  2B10               	goto	u3861
  3444     030F  2B11               	goto	u3860
  3445     0310                     u3861:
  3446     0310  2B12               	goto	l3543
  3447     0311                     u3860:
  3448     0311  2B78               	goto	l539
  3449     0312                     l3543:
  3450                           
  3451                           ;tundra.c: 431:   fReceiver_Byte = 0;
  3452     0312  01C4               	clrf	_fReceiver_Byte	;volatile
  3453                           
  3454                           ;tundra.c: 433:   switch (eReceiver_step) {
  3455     0313  2B4D               	goto	l3599
  3456     0314                     l3545:
  3457     0314  30C8               	movlw	200
  3458     0315  0672               	xorwf	_rx_data,w
  3459     0316  1D03               	btfss	3,2
  3460     0317  2B19               	goto	u3871
  3461     0318  2B1A               	goto	u3870
  3462     0319                     u3871:
  3463     0319  2B78               	goto	l539
  3464     031A                     u3870:
  3465     031A                     l3547:
  3466                           
  3467                           ;tundra.c: 436:       eReceiver_step++;
  3468     031A  3001               	movlw	1
  3469     031B  00C6               	movwf	??_receiver_frame_data
  3470     031C  0846               	movf	??_receiver_frame_data,w
  3471     031D  07BD               	addwf	receiver_frame_data@eReceiver_step,f
  3472     031E                     l3549:
  3473                           
  3474                           ;tundra.c: 437:       rx_buf[0] = rx_data;
  3475     031E  0872               	movf	_rx_data,w
  3476     031F  00A0               	movwf	_rx_buf
  3477     0320  2B78               	goto	l539
  3478     0321                     l3551:
  3479     0321  308B               	movlw	139
  3480     0322  0672               	xorwf	_rx_data,w
  3481     0323  1D03               	btfss	3,2
  3482     0324  2B26               	goto	u3881
  3483     0325  2B27               	goto	u3880
  3484     0326                     u3881:
  3485     0326  2B2E               	goto	l3557
  3486     0327                     u3880:
  3487     0327                     l3553:
  3488                           
  3489                           ;tundra.c: 442:       rx_buf[1] = rx_data;
  3490     0327  0872               	movf	_rx_data,w
  3491     0328  00A1               	movwf	_rx_buf+1
  3492     0329                     l3555:
  3493                           
  3494                           ;tundra.c: 443:       eReceiver_step++;
  3495     0329  3001               	movlw	1
  3496     032A  00C6               	movwf	??_receiver_frame_data
  3497     032B  0846               	movf	??_receiver_frame_data,w
  3498     032C  07BD               	addwf	receiver_frame_data@eReceiver_step,f
  3499                           
  3500                           ;tundra.c: 444:     } else {
  3501     032D  2B78               	goto	l539
  3502     032E                     l3557:
  3503                           
  3504                           ;tundra.c: 445:       eReceiver_step = eRECEIVE_PID;
  3505     032E  01BD               	clrf	receiver_frame_data@eReceiver_step
  3506     032F  2B78               	goto	l539
  3507     0330                     l3559:
  3508                           
  3509                           ;tundra.c: 449:     rx_buf[2] = rx_data;
  3510     0330  0872               	movf	_rx_data,w
  3511     0331  00A2               	movwf	_rx_buf+2
  3512     0332  2B29               	goto	l3555
  3513     0333                     l3563:
  3514                           
  3515                           ;tundra.c: 453:     rx_buf[3] = rx_data;
  3516     0333  0872               	movf	_rx_data,w
  3517     0334  00A3               	movwf	_rx_buf+3
  3518     0335  2B29               	goto	l3555
  3519     0336                     l3567:
  3520                           
  3521                           ;tundra.c: 457:     rx_buf[4] = rx_data;
  3522     0336  0872               	movf	_rx_data,w
  3523     0337  00A4               	movwf	_rx_buf+4
  3524     0338  2B29               	goto	l3555
  3525     0339                     l3571:
  3526                           
  3527                           ;tundra.c: 461:     rx_buf[5] = rx_data;
  3528     0339  0872               	movf	_rx_data,w
  3529     033A  00A5               	movwf	_rx_buf+5
  3530     033B  2B29               	goto	l3555
  3531     033C                     l3575:
  3532                           
  3533                           ;tundra.c: 465:     rx_buf[6] = rx_data;
  3534     033C  0872               	movf	_rx_data,w
  3535     033D  00A6               	movwf	_rx_buf+6
  3536     033E  2B29               	goto	l3555
  3537     033F                     l3579:
  3538                           
  3539                           ;tundra.c: 469:     rx_buf[7] = rx_data;
  3540     033F  0872               	movf	_rx_data,w
  3541     0340  00A7               	movwf	_rx_buf+7
  3542     0341  2B29               	goto	l3555
  3543     0342                     l3583:
  3544                           
  3545                           ;tundra.c: 473:     rx_buf[8] = rx_data;
  3546     0342  0872               	movf	_rx_data,w
  3547     0343  00A8               	movwf	_rx_buf+8
  3548     0344  2B29               	goto	l3555
  3549     0345                     l3587:
  3550                           
  3551                           ;tundra.c: 477:     rx_buf[9] = rx_data;
  3552     0345  0872               	movf	_rx_data,w
  3553     0346  00A9               	movwf	_rx_buf+9
  3554     0347  2B29               	goto	l3555
  3555     0348                     l3591:
  3556                           
  3557                           ;tundra.c: 481:     rx_buf[10] = rx_data;
  3558     0348  0872               	movf	_rx_data,w
  3559     0349  00AA               	movwf	_rx_buf+10
  3560                           
  3561                           ;tundra.c: 482:     fFrame_OK = 1;
  3562     034A  3001               	movlw	1
  3563     034B  00C3               	movwf	_fFrame_OK	;volatile
  3564     034C  2B2E               	goto	l3557
  3565     034D                     l3599:
  3566     034D  083D               	movf	receiver_frame_data@eReceiver_step,w
  3567     034E  00C6               	movwf	??_receiver_frame_data
  3568     034F  01C7               	clrf	??_receiver_frame_data+1
  3569                           
  3570                           ; Switch on 2 bytes has been partitioned into a top level switch of size 1, and 1 sub-sw
      +                          itches
  3571                           ; Switch size 1, requested type "simple"
  3572                           ; Number of cases is 1, Range of values is 0 to 0
  3573                           ; switch strategies available:
  3574                           ; Name         Instructions Cycles
  3575                           ; simple_byte            4     3 (average)
  3576                           ; direct_byte            8     6 (fixed)
  3577                           ; jumptable            260     6 (fixed)
  3578                           ;	Chosen strategy is simple_byte
  3579     0350  0847               	movf	??_receiver_frame_data+1,w
  3580     0351  3A00               	xorlw	0	; case 0
  3581     0352  1903               	skipnz
  3582     0353  2B55               	goto	l3699
  3583     0354  2B2E               	goto	l3557
  3584     0355                     l3699:
  3585                           
  3586                           ; Switch size 1, requested type "simple"
  3587                           ; Number of cases is 11, Range of values is 0 to 10
  3588                           ; switch strategies available:
  3589                           ; Name         Instructions Cycles
  3590                           ; direct_byte           28     6 (fixed)
  3591                           ; simple_byte           34    18 (average)
  3592                           ; jumptable            260     6 (fixed)
  3593                           ;	Chosen strategy is simple_byte
  3594     0355  0846               	movf	??_receiver_frame_data,w
  3595     0356  3A00               	xorlw	0	; case 0
  3596     0357  1903               	skipnz
  3597     0358  2B14               	goto	l3545
  3598     0359  3A01               	xorlw	1	; case 1
  3599     035A  1903               	skipnz
  3600     035B  2B21               	goto	l3551
  3601     035C  3A03               	xorlw	3	; case 2
  3602     035D  1903               	skipnz
  3603     035E  2B30               	goto	l3559
  3604     035F  3A01               	xorlw	1	; case 3
  3605     0360  1903               	skipnz
  3606     0361  2B33               	goto	l3563
  3607     0362  3A07               	xorlw	7	; case 4
  3608     0363  1903               	skipnz
  3609     0364  2B36               	goto	l3567
  3610     0365  3A01               	xorlw	1	; case 5
  3611     0366  1903               	skipnz
  3612     0367  2B39               	goto	l3571
  3613     0368  3A03               	xorlw	3	; case 6
  3614     0369  1903               	skipnz
  3615     036A  2B3C               	goto	l3575
  3616     036B  3A01               	xorlw	1	; case 7
  3617     036C  1903               	skipnz
  3618     036D  2B3F               	goto	l3579
  3619     036E  3A0F               	xorlw	15	; case 8
  3620     036F  1903               	skipnz
  3621     0370  2B42               	goto	l3583
  3622     0371  3A01               	xorlw	1	; case 9
  3623     0372  1903               	skipnz
  3624     0373  2B45               	goto	l3587
  3625     0374  3A03               	xorlw	3	; case 10
  3626     0375  1903               	skipnz
  3627     0376  2B48               	goto	l3591
  3628     0377  2B2E               	goto	l3557
  3629     0378                     l539:
  3630     0378  0008               	return
  3631     0379                     __end_of_receiver_frame_data:
  3632                           
  3633                           	psect	text6
  3634     0516                     __ptext6:	
  3635 ;; *************** function _check_unlock_even *****************
  3636 ;; Defined at:
  3637 ;;		line 233 in file "tundra.c"
  3638 ;; Parameters:    Size  Location     Type
  3639 ;;		None
  3640 ;; Auto vars:     Size  Location     Type
  3641 ;;		None
  3642 ;; Return value:  Size  Location     Type
  3643 ;;                  1    wreg      void 
  3644 ;; Registers used:
  3645 ;;		wreg, status,2, status,0
  3646 ;; Tracked objects:
  3647 ;;		On entry : 0/0
  3648 ;;		On exit  : 0/0
  3649 ;;		Unchanged: 0/0
  3650 ;; Data sizes:     COMMON   BANK0   BANK1   BANK2   BANK3   BANK4   BANK5   BANK6
  3651 ;;      Params:         0       0       0       0       0       0       0       0
  3652 ;;      Locals:         0       0       0       0       0       0       0       0
  3653 ;;      Temps:          0       0       0       0       0       0       0       0
  3654 ;;      Totals:         0       0       0       0       0       0       0       0
  3655 ;;Total ram usage:        0 bytes
  3656 ;; Hardware stack levels used: 1
  3657 ;; Hardware stack levels required when called: 4
  3658 ;; This function calls:
  3659 ;;		Nothing
  3660 ;; This function is called by:
  3661 ;;		_tundra_main
  3662 ;; This function uses a non-reentrant model
  3663 ;;
  3664                           
  3665     0516                     _check_unlock_even:	
  3666                           ;psect for function _check_unlock_even
  3667                           
  3668     0516                     l3493:	
  3669                           ;incstack = 0
  3670                           ; Regs used in _check_unlock_even: [wreg+status,2+status,0]
  3671                           
  3672                           
  3673                           ;tundra.c: 234:   if ((rx_buf[2] == 6) && (rx_buf[10] == 0xD5)) {
  3674     0516  3006               	movlw	6
  3675     0517  0020               	movlb	0	; select bank0
  3676     0518  0622               	xorwf	_rx_buf+2,w
  3677     0519  1D03               	btfss	3,2
  3678     051A  2D1C               	goto	u3811
  3679     051B  2D1D               	goto	u3810
  3680     051C                     u3811:
  3681     051C  2D26               	goto	l455
  3682     051D                     u3810:
  3683     051D                     l3495:
  3684     051D  30D5               	movlw	213
  3685     051E  062A               	xorwf	_rx_buf+10,w
  3686     051F  1D03               	btfss	3,2
  3687     0520  2D22               	goto	u3821
  3688     0521  2D23               	goto	u3820
  3689     0522                     u3821:
  3690     0522  2D26               	goto	l455
  3691     0523                     u3820:
  3692     0523                     l3497:
  3693                           
  3694                           ;tundra.c: 235:     eLamp_even = eEVEN_SIGNAL_UNLOCK;
  3695     0523  3003               	movlw	3
  3696     0524  00C0               	movwf	_eLamp_even
  3697     0525                     l3499:
  3698                           
  3699                           ;tundra.c: 236:     Communication_timer = 0;
  3700     0525  01C2               	clrf	_Communication_timer	;volatile
  3701     0526                     l455:
  3702     0526  0008               	return
  3703     0527                     __end_of_check_unlock_even:
  3704                           
  3705                           	psect	text7
  3706     0527                     __ptext7:	
  3707 ;; *************** function _check_lamp_off_even *****************
  3708 ;; Defined at:
  3709 ;;		line 241 in file "tundra.c"
  3710 ;; Parameters:    Size  Location     Type
  3711 ;;		None
  3712 ;; Auto vars:     Size  Location     Type
  3713 ;;		None
  3714 ;; Return value:  Size  Location     Type
  3715 ;;                  1    wreg      void 
  3716 ;; Registers used:
  3717 ;;		wreg, status,2, status,0
  3718 ;; Tracked objects:
  3719 ;;		On entry : 0/0
  3720 ;;		On exit  : 0/0
  3721 ;;		Unchanged: 0/0
  3722 ;; Data sizes:     COMMON   BANK0   BANK1   BANK2   BANK3   BANK4   BANK5   BANK6
  3723 ;;      Params:         0       0       0       0       0       0       0       0
  3724 ;;      Locals:         0       0       0       0       0       0       0       0
  3725 ;;      Temps:          0       0       0       0       0       0       0       0
  3726 ;;      Totals:         0       0       0       0       0       0       0       0
  3727 ;;Total ram usage:        0 bytes
  3728 ;; Hardware stack levels used: 1
  3729 ;; Hardware stack levels required when called: 4
  3730 ;; This function calls:
  3731 ;;		Nothing
  3732 ;; This function is called by:
  3733 ;;		_tundra_main
  3734 ;; This function uses a non-reentrant model
  3735 ;;
  3736                           
  3737     0527                     _check_lamp_off_even:	
  3738                           ;psect for function _check_lamp_off_even
  3739                           
  3740     0527                     l3501:	
  3741                           ;incstack = 0
  3742                           ; Regs used in _check_lamp_off_even: [wreg+status,2+status,0]
  3743                           
  3744                           
  3745                           ;tundra.c: 242:   if ((rx_buf[2] == 2) && (rx_buf[10] == 0xB4)) {
  3746     0527  3002               	movlw	2
  3747     0528  0020               	movlb	0	; select bank0
  3748     0529  0622               	xorwf	_rx_buf+2,w
  3749     052A  1D03               	btfss	3,2
  3750     052B  2D2D               	goto	u3831
  3751     052C  2D2E               	goto	u3830
  3752     052D                     u3831:
  3753     052D  2D37               	goto	l459
  3754     052E                     u3830:
  3755     052E                     l3503:
  3756     052E  30B4               	movlw	180
  3757     052F  062A               	xorwf	_rx_buf+10,w
  3758     0530  1D03               	btfss	3,2
  3759     0531  2D33               	goto	u3841
  3760     0532  2D34               	goto	u3840
  3761     0533                     u3841:
  3762     0533  2D37               	goto	l459
  3763     0534                     u3840:
  3764     0534                     l3505:
  3765                           
  3766                           ;tundra.c: 244:     eLamp_even = eEVEN_SIGNAL_CLEAR;
  3767     0534  3004               	movlw	4
  3768     0535  00C0               	movwf	_eLamp_even
  3769     0536                     l3507:
  3770                           
  3771                           ;tundra.c: 245:     Communication_timer = 0;
  3772     0536  01C2               	clrf	_Communication_timer	;volatile
  3773     0537                     l459:
  3774     0537  0008               	return
  3775     0538                     __end_of_check_lamp_off_even:
  3776                           
  3777                           	psect	text8
  3778     0379                     __ptext8:	
  3779 ;; *************** function _analysis_of_data *****************
  3780 ;; Defined at:
  3781 ;;		line 158 in file "tundra.c"
  3782 ;; Parameters:    Size  Location     Type
  3783 ;;		None
  3784 ;; Auto vars:     Size  Location     Type
  3785 ;;  temp_index      1    1[BANK0 ] struct .
  3786 ;;  crc8            1    0[BANK0 ] unsigned char 
  3787 ;; Return value:  Size  Location     Type
  3788 ;;                  1    wreg      void 
  3789 ;; Registers used:
  3790 ;;		wreg, fsr0l, fsr0h, status,2, status,0, pclath
  3791 ;; Tracked objects:
  3792 ;;		On entry : 0/0
  3793 ;;		On exit  : 0/0
  3794 ;;		Unchanged: 0/0
  3795 ;; Data sizes:     COMMON   BANK0   BANK1   BANK2   BANK3   BANK4   BANK5   BANK6
  3796 ;;      Params:         0       0       0       0       0       0       0       0
  3797 ;;      Locals:         0       2       0       0       0       0       0       0
  3798 ;;      Temps:          0       0       0       0       0       0       0       0
  3799 ;;      Totals:         0       2       0       0       0       0       0       0
  3800 ;;Total ram usage:        2 bytes
  3801 ;; Hardware stack levels used: 1
  3802 ;; Hardware stack levels required when called: 4
  3803 ;; This function calls:
  3804 ;;		Nothing
  3805 ;; This function is called by:
  3806 ;;		_tundra_main
  3807 ;; This function uses a non-reentrant model
  3808 ;;
  3809                           
  3810     0379                     _analysis_of_data:	
  3811                           ;psect for function _analysis_of_data
  3812                           
  3813     0379                     l3441:	
  3814                           ;incstack = 0
  3815                           ; Regs used in _analysis_of_data: [wreg-fsr0h+status,2+status,0+pclath]
  3816                           
  3817                           
  3818                           ;tundra.c: 159:   D2.Byte = rx_buf[2];
  3819     0379  0020               	movlb	0	; select bank0
  3820     037A  0822               	movf	_rx_buf+2,w
  3821     037B  00F4               	movwf	_D2
  3822                           
  3823                           ;tundra.c: 160:   D3.Byte = rx_buf[3];
  3824     037C  0823               	movf	_rx_buf+3,w
  3825     037D  00C5               	movwf	_D3
  3826     037E                     l3443:
  3827                           
  3828                           ;tundra.c: 161:   sflag_CS_index temp_index;;tundra.c: 162:   temp_index.Byte = 0;
  3829     037E  01C7               	clrf	analysis_of_data@temp_index
  3830     037F                     l3445:
  3831     037F                     l3447:
  3832                           
  3833                           ;tundra.c: 165:   if (!fFrame_OK) {
  3834     037F  0843               	movf	_fFrame_OK,w	;volatile
  3835     0380  1D03               	btfss	3,2
  3836     0381  2B83               	goto	u3711
  3837     0382  2B84               	goto	u3710
  3838     0383                     u3711:
  3839     0383  2B85               	goto	l3451
  3840     0384                     u3710:
  3841     0384  2BCC               	goto	l442
  3842     0385                     l3451:
  3843                           
  3844                           ;tundra.c: 168:   fFrame_OK = 0;
  3845     0385  01C3               	clrf	_fFrame_OK	;volatile
  3846     0386                     l3453:
  3847                           
  3848                           ;tundra.c: 171:   if (D2.POS) {
  3849     0386  1D74               	btfss	_D2,2
  3850     0387  2B89               	goto	u3721
  3851     0388  2B8A               	goto	u3720
  3852     0389                     u3721:
  3853     0389  2B8B               	goto	l443
  3854     038A                     u3720:
  3855     038A                     l3455:
  3856                           
  3857                           ;tundra.c: 172:     temp_index.POS = 1;
  3858     038A  16C7               	bsf	analysis_of_data@temp_index,5
  3859     038B                     l443:	
  3860                           ;tundra.c: 173:   }
  3861                           
  3862                           
  3863                           ;tundra.c: 176:   if (D2.DRL) {
  3864     038B  1DF4               	btfss	_D2,3
  3865     038C  2B8E               	goto	u3731
  3866     038D  2B8F               	goto	u3730
  3867     038E                     u3731:
  3868     038E  2B90               	goto	l444
  3869     038F                     u3730:
  3870     038F                     l3457:
  3871                           
  3872                           ;tundra.c: 177:     temp_index.DRL = 1;
  3873     038F  1647               	bsf	analysis_of_data@temp_index,4
  3874     0390                     l444:	
  3875                           ;tundra.c: 178:   }
  3876                           
  3877                           
  3878                           ;tundra.c: 181:   if (D2.LoBeam) {
  3879     0390  1E74               	btfss	_D2,4
  3880     0391  2B93               	goto	u3741
  3881     0392  2B94               	goto	u3740
  3882     0393                     u3741:
  3883     0393  2B95               	goto	l445
  3884     0394                     u3740:
  3885     0394                     l3459:
  3886                           
  3887                           ;tundra.c: 182:     temp_index.LoBeam = 1;
  3888     0394  15C7               	bsf	analysis_of_data@temp_index,3
  3889     0395                     l445:	
  3890                           ;tundra.c: 183:   }
  3891                           
  3892                           
  3893                           ;tundra.c: 186:   if (D2.HiBeam) {
  3894     0395  1EF4               	btfss	_D2,5
  3895     0396  2B98               	goto	u3751
  3896     0397  2B99               	goto	u3750
  3897     0398                     u3751:
  3898     0398  2B9A               	goto	l446
  3899     0399                     u3750:
  3900     0399                     l3461:
  3901                           
  3902                           ;tundra.c: 187:     temp_index.HiBeam = 1;
  3903     0399  1547               	bsf	analysis_of_data@temp_index,2
  3904     039A                     l446:	
  3905                           ;tundra.c: 188:   }
  3906                           
  3907                           
  3908                           ;tundra.c: 191:   if (D3.turnLight_L) {
  3909     039A  1EC5               	btfss	_D3,5
  3910     039B  2B9D               	goto	u3761
  3911     039C  2B9E               	goto	u3760
  3912     039D                     u3761:
  3913     039D  2B9F               	goto	l447
  3914     039E                     u3760:
  3915     039E                     l3463:
  3916                           
  3917                           ;tundra.c: 192:     temp_index.turnLight_L = 1;
  3918     039E  14C7               	bsf	analysis_of_data@temp_index,1
  3919     039F                     l447:	
  3920                           ;tundra.c: 193:   }
  3921                           
  3922                           
  3923                           ;tundra.c: 196:   if (D3.turnLight_R) {
  3924     039F  1F45               	btfss	_D3,6
  3925     03A0  2BA2               	goto	u3771
  3926     03A1  2BA3               	goto	u3770
  3927     03A2                     u3771:
  3928     03A2  2BA4               	goto	l3467
  3929     03A3                     u3770:
  3930     03A3                     l3465:
  3931                           
  3932                           ;tundra.c: 197:     temp_index.turnLight_R = 1;
  3933     03A3  1447               	bsf	analysis_of_data@temp_index,0
  3934     03A4                     l3467:
  3935                           
  3936                           ;tundra.c: 200:   crc8 = CS[temp_index.Byte];
  3937     03A4  0847               	movf	analysis_of_data@temp_index,w
  3938     03A5  3ECD               	addlw	low (_CS| (0+32768))
  3939     03A6  0084               	movwf	4
  3940     03A7  3083               	movlw	high (_CS| (0+32768))
  3941     03A8  1803               	skipnc
  3942     03A9  3E01               	addlw	1
  3943     03AA  0085               	movwf	5
  3944     03AB  0800               	movf	0,w	;code access
  3945     03AC  00C6               	movwf	analysis_of_data@crc8
  3946     03AD                     l3469:
  3947                           
  3948                           ;tundra.c: 202:   if (rx_buf[10] != crc8) {
  3949     03AD  082A               	movf	_rx_buf+10,w
  3950     03AE  0646               	xorwf	analysis_of_data@crc8,w
  3951     03AF  1903               	skipnz
  3952     03B0  2BB2               	goto	u3781
  3953     03B1  2BB3               	goto	u3780
  3954     03B2                     u3781:
  3955     03B2  2BB5               	goto	l3475
  3956     03B3                     u3780:
  3957     03B3                     l3471:
  3958                           
  3959                           ;tundra.c: 204:     eLamp_even = eEVEN_SIGNAL_NOTHING;
  3960     03B3  01C0               	clrf	_eLamp_even
  3961     03B4  2BCC               	goto	l442
  3962     03B5                     l3475:
  3963     03B5  30C8               	movlw	200
  3964     03B6  0620               	xorwf	_rx_buf,w
  3965     03B7  1903               	btfsc	3,2
  3966     03B8  2BBA               	goto	u3791
  3967     03B9  2BBB               	goto	u3790
  3968     03BA                     u3791:
  3969     03BA  2BBE               	goto	l3481
  3970     03BB                     u3790:
  3971     03BB                     l3477:
  3972                           
  3973                           ;tundra.c: 210:     rx_buf[0] = 0;
  3974     03BB  01A0               	clrf	_rx_buf
  3975                           
  3976                           ;tundra.c: 211:     eLamp_even = eEVEN_SIGNAL_NOTHING;
  3977     03BC  01C0               	clrf	_eLamp_even
  3978     03BD  2BCC               	goto	l442
  3979     03BE                     l3481:
  3980     03BE  308B               	movlw	139
  3981     03BF  0621               	xorwf	_rx_buf+1,w
  3982     03C0  1903               	btfsc	3,2
  3983     03C1  2BC3               	goto	u3801
  3984     03C2  2BC4               	goto	u3800
  3985     03C3                     u3801:
  3986     03C3  2BC7               	goto	l3487
  3987     03C4                     u3800:
  3988     03C4                     l3483:
  3989                           
  3990                           ;tundra.c: 217:     rx_buf[1] = 0;
  3991     03C4  01A1               	clrf	_rx_buf+1
  3992                           
  3993                           ;tundra.c: 218:     eLamp_even = eEVEN_SIGNAL_NOTHING;
  3994     03C5  01C0               	clrf	_eLamp_even
  3995     03C6  2BCC               	goto	l442
  3996     03C7                     l3487:
  3997                           
  3998                           ;tundra.c: 223:   csFlag.Byte = temp_index.Byte;
  3999     03C7  0847               	movf	analysis_of_data@temp_index,w
  4000     03C8  00F3               	movwf	_csFlag
  4001     03C9                     l3489:
  4002                           
  4003                           ;tundra.c: 224:   Communication_timer = 0;
  4004     03C9  01C2               	clrf	_Communication_timer	;volatile
  4005     03CA                     l3491:
  4006                           
  4007                           ;tundra.c: 225:   eLamp_even = eEVEN_SIGNAL_OK;
  4008     03CA  01C0               	clrf	_eLamp_even
  4009     03CB  0AC0               	incf	_eLamp_even,f
  4010     03CC                     l442:
  4011     03CC  0008               	return
  4012     03CD                     __end_of_analysis_of_data:
  4013                           
  4014                           	psect	text9
  4015     0549                     __ptext9:	
  4016 ;; *************** function _LED_control *****************
  4017 ;; Defined at:
  4018 ;;		line 281 in file "tundra.c"
  4019 ;; Parameters:    Size  Location     Type
  4020 ;;		None
  4021 ;; Auto vars:     Size  Location     Type
  4022 ;;		None
  4023 ;; Return value:  Size  Location     Type
  4024 ;;                  1    wreg      void 
  4025 ;; Registers used:
  4026 ;;		wreg, status,2, status,0, pclath, cstack
  4027 ;; Tracked objects:
  4028 ;;		On entry : 0/0
  4029 ;;		On exit  : 0/0
  4030 ;;		Unchanged: 0/0
  4031 ;; Data sizes:     COMMON   BANK0   BANK1   BANK2   BANK3   BANK4   BANK5   BANK6
  4032 ;;      Params:         0       0       0       0       0       0       0       0
  4033 ;;      Locals:         0       0       0       0       0       0       0       0
  4034 ;;      Temps:          0       0       0       0       0       0       0       0
  4035 ;;      Totals:         0       0       0       0       0       0       0       0
  4036 ;;Total ram usage:        0 bytes
  4037 ;; Hardware stack levels used: 1
  4038 ;; Hardware stack levels required when called: 7
  4039 ;; This function calls:
  4040 ;;		_Is_HiPe
  4041 ;;		_LED_control_HiPe
  4042 ;;		_LED_control_LoPe
  4043 ;; This function is called by:
  4044 ;;		_tundra_main
  4045 ;; This function uses a non-reentrant model
  4046 ;;
  4047                           
  4048     0549                     _LED_control:	
  4049                           ;psect for function _LED_control
  4050                           
  4051     0549                     l3533:	
  4052                           ;incstack = 0
  4053                           ; Regs used in _LED_control: [wreg+status,2+status,0+pclath+cstack]
  4054                           
  4055                           
  4056                           ;tundra.c: 282:   if (Is_HiPe()) {
  4057     0549  3185  25E3  3185   	fcall	_Is_HiPe
  4058     054C  3A00               	xorlw	0
  4059     054D  1903               	skipnz
  4060     054E  2D50               	goto	u3851
  4061     054F  2D51               	goto	u3850
  4062     0550                     u3851:
  4063     0550  2D55               	goto	l3537
  4064     0551                     u3850:
  4065     0551                     l3535:
  4066                           
  4067                           ;tundra.c: 283:     LED_control_HiPe();
  4068     0551  3180  203E  3185   	fcall	_LED_control_HiPe
  4069                           
  4070                           ;tundra.c: 284:   } else {
  4071     0554  2D58               	goto	l473
  4072     0555                     l3537:
  4073                           
  4074                           ;tundra.c: 285:     LED_control_LoPe();
  4075     0555  3181  2187  3185   	fcall	_LED_control_LoPe
  4076     0558                     l473:
  4077     0558  0008               	return
  4078     0559                     __end_of_LED_control:
  4079                           
  4080                           	psect	text10
  4081     0187                     __ptext10:	
  4082 ;; *************** function _LED_control_LoPe *****************
  4083 ;; Defined at:
  4084 ;;		line 362 in file "tundra.c"
  4085 ;; Parameters:    Size  Location     Type
  4086 ;;		None
  4087 ;; Auto vars:     Size  Location     Type
  4088 ;;		None
  4089 ;; Return value:  Size  Location     Type
  4090 ;;                  1    wreg      void 
  4091 ;; Registers used:
  4092 ;;		wreg, status,2, status,0, pclath, cstack
  4093 ;; Tracked objects:
  4094 ;;		On entry : 0/0
  4095 ;;		On exit  : 0/0
  4096 ;;		Unchanged: 0/0
  4097 ;; Data sizes:     COMMON   BANK0   BANK1   BANK2   BANK3   BANK4   BANK5   BANK6
  4098 ;;      Params:         0       0       0       0       0       0       0       0
  4099 ;;      Locals:         0       0       0       0       0       0       0       0
  4100 ;;      Temps:          0       1       0       0       0       0       0       0
  4101 ;;      Totals:         0       1       0       0       0       0       0       0
  4102 ;;Total ram usage:        1 bytes
  4103 ;; Hardware stack levels used: 1
  4104 ;; Hardware stack levels required when called: 5
  4105 ;; This function calls:
  4106 ;;		_EPWM1_LoadDutyValue
  4107 ;;		_HIBEAM_OFF
  4108 ;;		_HIBEAM_ON
  4109 ;;		_P2_POS2_OFF
  4110 ;;		_P2_POS2_ON
  4111 ;; This function is called by:
  4112 ;;		_LED_control
  4113 ;; This function uses a non-reentrant model
  4114 ;;
  4115                           
  4116     0187                     _LED_control_LoPe:	
  4117                           ;psect for function _LED_control_LoPe
  4118                           
  4119     0187                     l3213:	
  4120                           ;incstack = 0
  4121                           ; Regs used in _LED_control_LoPe: [wreg+status,2+status,0+pclath+cstack]
  4122                           
  4123                           
  4124                           ;tundra.c: 364:   if (csFlag.POS) {
  4125     0187  1EF3               	btfss	_csFlag,5
  4126     0188  298A               	goto	u3421
  4127     0189  298B               	goto	u3420
  4128     018A                     u3421:
  4129     018A  298F               	goto	l3217
  4130     018B                     u3420:
  4131     018B                     l3215:
  4132                           
  4133                           ;tundra.c: 365:     P2_POS2_ON();
  4134     018B  3186  2665  3181   	fcall	_P2_POS2_ON
  4135                           
  4136                           ;tundra.c: 366:   } else {
  4137     018E  2992               	goto	l3219
  4138     018F                     l3217:
  4139                           
  4140                           ;tundra.c: 367:     P2_POS2_OFF();
  4141     018F  3186  2668  3181   	fcall	_P2_POS2_OFF
  4142     0192                     l3219:
  4143                           
  4144                           ;tundra.c: 370:   if (csFlag.LoBeam == 0 && csFlag.HiBeam == 0 && csFlag.DRL == 0) {
  4145     0192  19F3               	btfsc	_csFlag,3
  4146     0193  2995               	goto	u3431
  4147     0194  2996               	goto	u3430
  4148     0195                     u3431:
  4149     0195  29A9               	goto	l514
  4150     0196                     u3430:
  4151     0196                     l3221:
  4152     0196  1973               	btfsc	_csFlag,2
  4153     0197  2999               	goto	u3441
  4154     0198  299A               	goto	u3440
  4155     0199                     u3441:
  4156     0199  29A9               	goto	l514
  4157     019A                     u3440:
  4158     019A                     l3223:
  4159     019A  1A73               	btfsc	_csFlag,4
  4160     019B  299D               	goto	u3451
  4161     019C  299E               	goto	u3450
  4162     019D                     u3451:
  4163     019D  29A9               	goto	l514
  4164     019E                     u3450:
  4165     019E                     l3225:
  4166                           
  4167                           ;tundra.c: 372:     HIBEAM_OFF();
  4168     019E  3186  266E  3181   	fcall	_HIBEAM_OFF
  4169     01A1                     l3227:
  4170                           
  4171                           ;tundra.c: 373:     EPWM1_LoadDutyValue((0));
  4172     01A1  3000               	movlw	0
  4173     01A2  0020               	movlb	0	; select bank0
  4174     01A3  00C6               	movwf	EPWM1_LoadDutyValue@dutyValue
  4175     01A4  00C7               	movwf	EPWM1_LoadDutyValue@dutyValue+1
  4176     01A5  3184  2482  3181   	fcall	_EPWM1_LoadDutyValue
  4177                           
  4178                           ;tundra.c: 374:   } else if (csFlag.LoBeam == 0 && csFlag.HiBeam == 0 && csFlag.DRL == 1
      +                          ) {
  4179     01A8  2A68               	goto	l533
  4180     01A9                     l514:
  4181     01A9  19F3               	btfsc	_csFlag,3
  4182     01AA  29AC               	goto	u3461
  4183     01AB  29AD               	goto	u3460
  4184     01AC                     u3461:
  4185     01AC  2A05               	goto	l516
  4186     01AD                     u3460:
  4187     01AD                     l3229:
  4188     01AD  1973               	btfsc	_csFlag,2
  4189     01AE  29B0               	goto	u3471
  4190     01AF  29B1               	goto	u3470
  4191     01B0                     u3471:
  4192     01B0  2A05               	goto	l516
  4193     01B1                     u3470:
  4194     01B1                     l3231:
  4195     01B1  1E73               	btfss	_csFlag,4
  4196     01B2  29B4               	goto	u3481
  4197     01B3  29B5               	goto	u3480
  4198     01B4                     u3481:
  4199     01B4  2A05               	goto	l516
  4200     01B5                     u3480:
  4201     01B5                     l3233:
  4202                           
  4203                           ;tundra.c: 376:     if (CCPR1L == 0) {
  4204     01B5  0025               	movlb	5	; select bank5
  4205     01B6  0811               	movf	17,w	;volatile
  4206     01B7  1D03               	btfss	3,2
  4207     01B8  29BA               	goto	u3491
  4208     01B9  29BB               	goto	u3490
  4209     01BA                     u3491:
  4210     01BA  29C7               	goto	l3239
  4211     01BB                     u3490:
  4212     01BB                     l3235:
  4213                           
  4214                           ;tundra.c: 377:       HIBEAM_OFF();
  4215     01BB  3186  266E  3181   	fcall	_HIBEAM_OFF
  4216     01BE                     l3237:
  4217                           
  4218                           ;tundra.c: 378:       EPWM1_LoadDutyValue((320));
  4219     01BE  3040               	movlw	64
  4220     01BF  0020               	movlb	0	; select bank0
  4221     01C0  00C6               	movwf	EPWM1_LoadDutyValue@dutyValue
  4222     01C1  3001               	movlw	1
  4223     01C2  00C7               	movwf	EPWM1_LoadDutyValue@dutyValue+1
  4224     01C3  3184  2482  3181   	fcall	_EPWM1_LoadDutyValue
  4225                           
  4226                           ;tundra.c: 379:     } else if (CCPR1L != 80) {
  4227     01C6  2A68               	goto	l533
  4228     01C7                     l3239:
  4229     01C7  3050               	movlw	80
  4230     01C8  0611               	xorwf	17,w	;volatile
  4231     01C9  1903               	btfsc	3,2
  4232     01CA  29CC               	goto	u3501
  4233     01CB  29CD               	goto	u3500
  4234     01CC                     u3501:
  4235     01CC  2A04               	goto	l518
  4236     01CD                     u3500:
  4237     01CD                     l3241:
  4238                           
  4239                           ;tundra.c: 380:       HIBEAM_OFF();
  4240     01CD  3186  266E  3181   	fcall	_HIBEAM_OFF
  4241     01D0                     l3243:
  4242                           
  4243                           ;tundra.c: 381:       EPWM1_LoadDutyValue((804));
  4244     01D0  3024               	movlw	36
  4245     01D1  0020               	movlb	0	; select bank0
  4246     01D2  00C6               	movwf	EPWM1_LoadDutyValue@dutyValue
  4247     01D3  3003               	movlw	3
  4248     01D4  00C7               	movwf	EPWM1_LoadDutyValue@dutyValue+1
  4249     01D5  3184  2482  3181   	fcall	_EPWM1_LoadDutyValue
  4250                           
  4251                           ;tundra.c: 382:       _delay((unsigned long)((10)*(32000000/4000.0)));
  4252     01D8  3068               	movlw	104
  4253     01D9  0020               	movlb	0	; select bank0
  4254     01DA  00CA               	movwf	??_LED_control_LoPe
  4255     01DB  30E4               	movlw	228
  4256     01DC                     u3897:
  4257     01DC  0B89               	decfsz	9,f
  4258     01DD  29DC               	goto	u3897
  4259     01DE  0BCA               	decfsz	??_LED_control_LoPe,f
  4260     01DF  29DC               	goto	u3897
  4261     01E0  0000               	nop
  4262     01E1                     l3245:
  4263                           
  4264                           ;tundra.c: 383:       EPWM1_LoadDutyValue((640));
  4265     01E1  3080               	movlw	128
  4266     01E2  0020               	movlb	0	; select bank0
  4267     01E3  00C6               	movwf	EPWM1_LoadDutyValue@dutyValue
  4268     01E4  3002               	movlw	2
  4269     01E5  00C7               	movwf	EPWM1_LoadDutyValue@dutyValue+1
  4270     01E6  3184  2482  3181   	fcall	_EPWM1_LoadDutyValue
  4271     01E9                     l3247:
  4272                           
  4273                           ;tundra.c: 384:       _delay((unsigned long)((10)*(32000000/4000.0)));
  4274     01E9  3068               	movlw	104
  4275     01EA  0020               	movlb	0	; select bank0
  4276     01EB  00CA               	movwf	??_LED_control_LoPe
  4277     01EC  30E4               	movlw	228
  4278     01ED                     u3907:
  4279     01ED  0B89               	decfsz	9,f
  4280     01EE  29ED               	goto	u3907
  4281     01EF  0BCA               	decfsz	??_LED_control_LoPe,f
  4282     01F0  29ED               	goto	u3907
  4283     01F1  0000               	nop
  4284                           
  4285                           ;tundra.c: 385:       EPWM1_LoadDutyValue((480));
  4286     01F2  30E0               	movlw	224
  4287     01F3  0020               	movlb	0	; select bank0
  4288     01F4  00C6               	movwf	EPWM1_LoadDutyValue@dutyValue
  4289     01F5  3001               	movlw	1
  4290     01F6  00C7               	movwf	EPWM1_LoadDutyValue@dutyValue+1
  4291     01F7  3184  2482  3181   	fcall	_EPWM1_LoadDutyValue
  4292     01FA                     l3249:
  4293                           
  4294                           ;tundra.c: 386:       _delay((unsigned long)((10)*(32000000/4000.0)));
  4295     01FA  3068               	movlw	104
  4296     01FB  0020               	movlb	0	; select bank0
  4297     01FC  00CA               	movwf	??_LED_control_LoPe
  4298     01FD  30E4               	movlw	228
  4299     01FE                     u3917:
  4300     01FE  0B89               	decfsz	9,f
  4301     01FF  29FE               	goto	u3917
  4302     0200  0BCA               	decfsz	??_LED_control_LoPe,f
  4303     0201  29FE               	goto	u3917
  4304     0202  0000               	nop
  4305     0203  29BE               	goto	l3237
  4306     0204                     l518:
  4307                           
  4308                           ;tundra.c: 389:   } else if (csFlag.HiBeam == 0 && csFlag.LoBeam == 1 && csFlag.DRL == 0
      +                          ) {
  4309     0204  2A68               	goto	l533
  4310     0205                     l516:
  4311     0205  1973               	btfsc	_csFlag,2
  4312     0206  2A08               	goto	u3511
  4313     0207  2A09               	goto	u3510
  4314     0208                     u3511:
  4315     0208  2A1D               	goto	l521
  4316     0209                     u3510:
  4317     0209                     l3253:
  4318     0209  1DF3               	btfss	_csFlag,3
  4319     020A  2A0C               	goto	u3521
  4320     020B  2A0D               	goto	u3520
  4321     020C                     u3521:
  4322     020C  2A1D               	goto	l521
  4323     020D                     u3520:
  4324     020D                     l3255:
  4325     020D  1A73               	btfsc	_csFlag,4
  4326     020E  2A10               	goto	u3531
  4327     020F  2A11               	goto	u3530
  4328     0210                     u3531:
  4329     0210  2A1D               	goto	l521
  4330     0211                     u3530:
  4331     0211                     l3257:
  4332                           
  4333                           ;tundra.c: 391:     HIBEAM_OFF();
  4334     0211  3186  266E  3181   	fcall	_HIBEAM_OFF
  4335     0214                     l3259:
  4336                           
  4337                           ;tundra.c: 392:     EPWM1_LoadDutyValue((804));
  4338     0214  3024               	movlw	36
  4339     0215  0020               	movlb	0	; select bank0
  4340     0216  00C6               	movwf	EPWM1_LoadDutyValue@dutyValue
  4341     0217  3003               	movlw	3
  4342     0218  00C7               	movwf	EPWM1_LoadDutyValue@dutyValue+1
  4343     0219  3184  2482  3181   	fcall	_EPWM1_LoadDutyValue
  4344                           
  4345                           ;tundra.c: 393:   } else if (csFlag.HiBeam == 0 && csFlag.LoBeam == 1 && csFlag.DRL == 1
      +                          ) {
  4346     021C  2A68               	goto	l533
  4347     021D                     l521:
  4348     021D  1973               	btfsc	_csFlag,2
  4349     021E  2A20               	goto	u3541
  4350     021F  2A21               	goto	u3540
  4351     0220                     u3541:
  4352     0220  2A2A               	goto	l523
  4353     0221                     u3540:
  4354     0221                     l3261:
  4355     0221  1DF3               	btfss	_csFlag,3
  4356     0222  2A24               	goto	u3551
  4357     0223  2A25               	goto	u3550
  4358     0224                     u3551:
  4359     0224  2A2A               	goto	l523
  4360     0225                     u3550:
  4361     0225                     l3263:
  4362     0225  1E73               	btfss	_csFlag,4
  4363     0226  2A28               	goto	u3561
  4364     0227  2A29               	goto	u3560
  4365     0228                     u3561:
  4366     0228  2A2A               	goto	l523
  4367     0229                     u3560:
  4368     0229  2A11               	goto	l3257
  4369     022A                     l523:
  4370     022A  1D73               	btfss	_csFlag,2
  4371     022B  2A2D               	goto	u3571
  4372     022C  2A2E               	goto	u3570
  4373     022D                     u3571:
  4374     022D  2A37               	goto	l525
  4375     022E                     u3570:
  4376     022E                     l3269:
  4377     022E  19F3               	btfsc	_csFlag,3
  4378     022F  2A31               	goto	u3581
  4379     0230  2A32               	goto	u3580
  4380     0231                     u3581:
  4381     0231  2A37               	goto	l525
  4382     0232                     u3580:
  4383     0232                     l3271:
  4384     0232  1A73               	btfsc	_csFlag,4
  4385     0233  2A35               	goto	u3591
  4386     0234  2A36               	goto	u3590
  4387     0235                     u3591:
  4388     0235  2A37               	goto	l525
  4389     0236                     u3590:
  4390     0236  299E               	goto	l3225
  4391     0237                     l525:
  4392     0237  1D73               	btfss	_csFlag,2
  4393     0238  2A3A               	goto	u3601
  4394     0239  2A3B               	goto	u3600
  4395     023A                     u3601:
  4396     023A  2A4B               	goto	l527
  4397     023B                     u3600:
  4398     023B                     l3277:
  4399     023B  19F3               	btfsc	_csFlag,3
  4400     023C  2A3E               	goto	u3611
  4401     023D  2A3F               	goto	u3610
  4402     023E                     u3611:
  4403     023E  2A4B               	goto	l527
  4404     023F                     u3610:
  4405     023F                     l3279:
  4406     023F  1E73               	btfss	_csFlag,4
  4407     0240  2A42               	goto	u3621
  4408     0241  2A43               	goto	u3620
  4409     0242                     u3621:
  4410     0242  2A4B               	goto	l527
  4411     0243                     u3620:
  4412     0243                     l3281:
  4413                           
  4414                           ;tundra.c: 403:     if (CCPR1L != 80) {
  4415     0243  3050               	movlw	80
  4416     0244  0025               	movlb	5	; select bank5
  4417     0245  0611               	xorwf	17,w	;volatile
  4418     0246  1903               	btfsc	3,2
  4419     0247  2A49               	goto	u3631
  4420     0248  2A4A               	goto	u3630
  4421     0249                     u3631:
  4422     0249  2A68               	goto	l533
  4423     024A                     u3630:
  4424     024A  29CD               	goto	l3241
  4425     024B                     l527:
  4426     024B  1D73               	btfss	_csFlag,2
  4427     024C  2A4E               	goto	u3641
  4428     024D  2A4F               	goto	u3640
  4429     024E                     u3641:
  4430     024E  2A5B               	goto	l530
  4431     024F                     u3640:
  4432     024F                     l3295:
  4433     024F  1DF3               	btfss	_csFlag,3
  4434     0250  2A52               	goto	u3651
  4435     0251  2A53               	goto	u3650
  4436     0252                     u3651:
  4437     0252  2A5B               	goto	l530
  4438     0253                     u3650:
  4439     0253                     l3297:
  4440     0253  1A73               	btfsc	_csFlag,4
  4441     0254  2A56               	goto	u3661
  4442     0255  2A57               	goto	u3660
  4443     0256                     u3661:
  4444     0256  2A5B               	goto	l530
  4445     0257                     u3660:
  4446     0257                     l3299:
  4447                           
  4448                           ;tundra.c: 415:     HIBEAM_ON();
  4449     0257  3186  266B  3181   	fcall	_HIBEAM_ON
  4450     025A  2A14               	goto	l3259
  4451     025B                     l530:
  4452     025B  1D73               	btfss	_csFlag,2
  4453     025C  2A5E               	goto	u3671
  4454     025D  2A5F               	goto	u3670
  4455     025E                     u3671:
  4456     025E  2A04               	goto	l518
  4457     025F                     u3670:
  4458     025F                     l3303:
  4459     025F  1DF3               	btfss	_csFlag,3
  4460     0260  2A62               	goto	u3681
  4461     0261  2A63               	goto	u3680
  4462     0262                     u3681:
  4463     0262  2A04               	goto	l518
  4464     0263                     u3680:
  4465     0263                     l3305:
  4466     0263  1E73               	btfss	_csFlag,4
  4467     0264  2A66               	goto	u3691
  4468     0265  2A67               	goto	u3690
  4469     0266                     u3691:
  4470     0266  2A04               	goto	l518
  4471     0267                     u3690:
  4472     0267  2A57               	goto	l3299
  4473     0268                     l533:
  4474     0268  0008               	return
  4475     0269                     __end_of_LED_control_LoPe:
  4476                           
  4477                           	psect	text11
  4478     003E                     __ptext11:	
  4479 ;; *************** function _LED_control_HiPe *****************
  4480 ;; Defined at:
  4481 ;;		line 289 in file "tundra.c"
  4482 ;; Parameters:    Size  Location     Type
  4483 ;;		None
  4484 ;; Auto vars:     Size  Location     Type
  4485 ;;		None
  4486 ;; Return value:  Size  Location     Type
  4487 ;;                  1    wreg      void 
  4488 ;; Registers used:
  4489 ;;		wreg, status,2, status,0, pclath, cstack
  4490 ;; Tracked objects:
  4491 ;;		On entry : 0/0
  4492 ;;		On exit  : 0/0
  4493 ;;		Unchanged: 0/0
  4494 ;; Data sizes:     COMMON   BANK0   BANK1   BANK2   BANK3   BANK4   BANK5   BANK6
  4495 ;;      Params:         0       0       0       0       0       0       0       0
  4496 ;;      Locals:         0       0       0       0       0       0       0       0
  4497 ;;      Temps:          0       0       0       0       0       0       0       0
  4498 ;;      Totals:         0       0       0       0       0       0       0       0
  4499 ;;Total ram usage:        0 bytes
  4500 ;; Hardware stack levels used: 1
  4501 ;; Hardware stack levels required when called: 6
  4502 ;; This function calls:
  4503 ;;		_DRL_ON_HiPe
  4504 ;;		_DRL_POS_OFF_HiPe
  4505 ;;		_HIBEAM_OFF
  4506 ;;		_HIBEAM_ON
  4507 ;;		_LOBEAM_OFF
  4508 ;;		_LOBEAM_ON
  4509 ;;		_P2_POS2_OFF
  4510 ;;		_P2_POS2_ON
  4511 ;;		_POS_ON_HiPe
  4512 ;; This function is called by:
  4513 ;;		_LED_control
  4514 ;; This function uses a non-reentrant model
  4515 ;;
  4516                           
  4517     003E                     _LED_control_HiPe:	
  4518                           ;psect for function _LED_control_HiPe
  4519                           
  4520     003E                     l3013:	
  4521                           ;incstack = 0
  4522                           ; Regs used in _LED_control_HiPe: [wreg+status,2+status,0+pclath+cstack]
  4523                           
  4524                           
  4525                           ;tundra.c: 290:   if (csFlag.POS)
  4526     003E  1EF3               	btfss	_csFlag,5
  4527     003F  2841               	goto	u2771
  4528     0040  2842               	goto	u2770
  4529     0041                     u2771:
  4530     0041  2846               	goto	l3017
  4531     0042                     u2770:
  4532     0042                     l3015:
  4533                           
  4534                           ;tundra.c: 291:     P2_POS2_ON();
  4535     0042  3186  2665  3180   	fcall	_P2_POS2_ON
  4536     0045  2849               	goto	l3019
  4537     0046                     l3017:
  4538                           
  4539                           ;tundra.c: 293:     P2_POS2_OFF();
  4540     0046  3186  2668  3180   	fcall	_P2_POS2_OFF
  4541     0049                     l3019:
  4542                           
  4543                           ;tundra.c: 295:   if (csFlag.LoBeam == 0 && csFlag.HiBeam == 0 && csFlag.DRL == 0 && csF
      +                          lag.POS == 0) {
  4544     0049  19F3               	btfsc	_csFlag,3
  4545     004A  284C               	goto	u2781
  4546     004B  284D               	goto	u2780
  4547     004C                     u2781:
  4548     004C  2863               	goto	l478
  4549     004D                     u2780:
  4550     004D                     l3021:
  4551     004D  1973               	btfsc	_csFlag,2
  4552     004E  2850               	goto	u2791
  4553     004F  2851               	goto	u2790
  4554     0050                     u2791:
  4555     0050  2863               	goto	l478
  4556     0051                     u2790:
  4557     0051                     l3023:
  4558     0051  1A73               	btfsc	_csFlag,4
  4559     0052  2854               	goto	u2801
  4560     0053  2855               	goto	u2800
  4561     0054                     u2801:
  4562     0054  2863               	goto	l478
  4563     0055                     u2800:
  4564     0055                     l3025:
  4565     0055  1AF3               	btfsc	_csFlag,5
  4566     0056  2858               	goto	u2811
  4567     0057  2859               	goto	u2810
  4568     0058                     u2811:
  4569     0058  2863               	goto	l478
  4570     0059                     u2810:
  4571     0059                     l3027:
  4572                           
  4573                           ;tundra.c: 296:     LOBEAM_OFF();
  4574     0059  3186  2624  3180   	fcall	_LOBEAM_OFF
  4575     005C                     l3029:
  4576                           
  4577                           ;tundra.c: 297:     HIBEAM_OFF();
  4578     005C  3186  266E  3180   	fcall	_HIBEAM_OFF
  4579     005F                     l3031:
  4580                           
  4581                           ;tundra.c: 298:     DRL_POS_OFF_HiPe();
  4582     005F  3186  262C  3180   	fcall	_DRL_POS_OFF_HiPe
  4583                           
  4584                           ;tundra.c: 299:   } else if (csFlag.HiBeam == 0 && csFlag.LoBeam == 0 && csFlag.DRL == 0
      +                           && csFlag.POS == 1) {
  4585     0062  2986               	goto	l509
  4586     0063                     l478:
  4587     0063  1973               	btfsc	_csFlag,2
  4588     0064  2866               	goto	u2821
  4589     0065  2867               	goto	u2820
  4590     0066                     u2821:
  4591     0066  287D               	goto	l480
  4592     0067                     u2820:
  4593     0067                     l3033:
  4594     0067  19F3               	btfsc	_csFlag,3
  4595     0068  286A               	goto	u2831
  4596     0069  286B               	goto	u2830
  4597     006A                     u2831:
  4598     006A  287D               	goto	l480
  4599     006B                     u2830:
  4600     006B                     l3035:
  4601     006B  1A73               	btfsc	_csFlag,4
  4602     006C  286E               	goto	u2841
  4603     006D  286F               	goto	u2840
  4604     006E                     u2841:
  4605     006E  287D               	goto	l480
  4606     006F                     u2840:
  4607     006F                     l3037:
  4608     006F  1EF3               	btfss	_csFlag,5
  4609     0070  2872               	goto	u2851
  4610     0071  2873               	goto	u2850
  4611     0072                     u2851:
  4612     0072  287D               	goto	l480
  4613     0073                     u2850:
  4614     0073                     l3039:
  4615                           
  4616                           ;tundra.c: 300:     LOBEAM_OFF();
  4617     0073  3186  2624  3180   	fcall	_LOBEAM_OFF
  4618     0076                     l3041:
  4619                           
  4620                           ;tundra.c: 301:     HIBEAM_OFF();
  4621     0076  3186  266E  3180   	fcall	_HIBEAM_OFF
  4622     0079                     l3043:
  4623                           
  4624                           ;tundra.c: 302:     POS_ON_HiPe();
  4625     0079  3185  25F7  3180   	fcall	_POS_ON_HiPe
  4626                           
  4627                           ;tundra.c: 303:   } else if (csFlag.HiBeam == 0 && csFlag.LoBeam == 0 && csFlag.DRL == 1
      +                           && csFlag.POS == 0) {
  4628     007C  2986               	goto	l509
  4629     007D                     l480:
  4630     007D  1973               	btfsc	_csFlag,2
  4631     007E  2880               	goto	u2861
  4632     007F  2881               	goto	u2860
  4633     0080                     u2861:
  4634     0080  2897               	goto	l482
  4635     0081                     u2860:
  4636     0081                     l3045:
  4637     0081  19F3               	btfsc	_csFlag,3
  4638     0082  2884               	goto	u2871
  4639     0083  2885               	goto	u2870
  4640     0084                     u2871:
  4641     0084  2897               	goto	l482
  4642     0085                     u2870:
  4643     0085                     l3047:
  4644     0085  1E73               	btfss	_csFlag,4
  4645     0086  2888               	goto	u2881
  4646     0087  2889               	goto	u2880
  4647     0088                     u2881:
  4648     0088  2897               	goto	l482
  4649     0089                     u2880:
  4650     0089                     l3049:
  4651     0089  1AF3               	btfsc	_csFlag,5
  4652     008A  288C               	goto	u2891
  4653     008B  288D               	goto	u2890
  4654     008C                     u2891:
  4655     008C  2897               	goto	l482
  4656     008D                     u2890:
  4657     008D                     l3051:
  4658                           
  4659                           ;tundra.c: 304:     LOBEAM_OFF();
  4660     008D  3186  2624  3180   	fcall	_LOBEAM_OFF
  4661     0090                     l3053:
  4662                           
  4663                           ;tundra.c: 305:     HIBEAM_OFF();
  4664     0090  3186  266E  3180   	fcall	_HIBEAM_OFF
  4665     0093                     l3055:
  4666                           
  4667                           ;tundra.c: 306:     DRL_ON_HiPe();
  4668     0093  3186  2609  3180   	fcall	_DRL_ON_HiPe
  4669                           
  4670                           ;tundra.c: 307:   } else if (csFlag.HiBeam == 0 && csFlag.LoBeam == 0 && csFlag.DRL == 1
      +                           && csFlag.POS == 1) {
  4671     0096  2986               	goto	l509
  4672     0097                     l482:
  4673     0097  1973               	btfsc	_csFlag,2
  4674     0098  289A               	goto	u2901
  4675     0099  289B               	goto	u2900
  4676     009A                     u2901:
  4677     009A  28A8               	goto	l484
  4678     009B                     u2900:
  4679     009B                     l3057:
  4680     009B  19F3               	btfsc	_csFlag,3
  4681     009C  289E               	goto	u2911
  4682     009D  289F               	goto	u2910
  4683     009E                     u2911:
  4684     009E  28A8               	goto	l484
  4685     009F                     u2910:
  4686     009F                     l3059:
  4687     009F  1E73               	btfss	_csFlag,4
  4688     00A0  28A2               	goto	u2921
  4689     00A1  28A3               	goto	u2920
  4690     00A2                     u2921:
  4691     00A2  28A8               	goto	l484
  4692     00A3                     u2920:
  4693     00A3                     l3061:
  4694     00A3  1EF3               	btfss	_csFlag,5
  4695     00A4  28A6               	goto	u2931
  4696     00A5  28A7               	goto	u2930
  4697     00A6                     u2931:
  4698     00A6  28A8               	goto	l484
  4699     00A7                     u2930:
  4700     00A7  288D               	goto	l3051
  4701     00A8                     l484:
  4702     00A8  1973               	btfsc	_csFlag,2
  4703     00A9  28AB               	goto	u2941
  4704     00AA  28AC               	goto	u2940
  4705     00AB                     u2941:
  4706     00AB  28BC               	goto	l486
  4707     00AC                     u2940:
  4708     00AC                     l3069:
  4709     00AC  1DF3               	btfss	_csFlag,3
  4710     00AD  28AF               	goto	u2951
  4711     00AE  28B0               	goto	u2950
  4712     00AF                     u2951:
  4713     00AF  28BC               	goto	l486
  4714     00B0                     u2950:
  4715     00B0                     l3071:
  4716     00B0  1A73               	btfsc	_csFlag,4
  4717     00B1  28B3               	goto	u2961
  4718     00B2  28B4               	goto	u2960
  4719     00B3                     u2961:
  4720     00B3  28BC               	goto	l486
  4721     00B4                     u2960:
  4722     00B4                     l3073:
  4723     00B4  1AF3               	btfsc	_csFlag,5
  4724     00B5  28B7               	goto	u2971
  4725     00B6  28B8               	goto	u2970
  4726     00B7                     u2971:
  4727     00B7  28BC               	goto	l486
  4728     00B8                     u2970:
  4729     00B8                     l3075:
  4730                           
  4731                           ;tundra.c: 312:     LOBEAM_ON();
  4732     00B8  3186  2600  3180   	fcall	_LOBEAM_ON
  4733     00BB  285C               	goto	l3029
  4734     00BC                     l486:
  4735     00BC  1973               	btfsc	_csFlag,2
  4736     00BD  28BF               	goto	u2981
  4737     00BE  28C0               	goto	u2980
  4738     00BF                     u2981:
  4739     00BF  28D0               	goto	l488
  4740     00C0                     u2980:
  4741     00C0                     l3081:
  4742     00C0  1DF3               	btfss	_csFlag,3
  4743     00C1  28C3               	goto	u2991
  4744     00C2  28C4               	goto	u2990
  4745     00C3                     u2991:
  4746     00C3  28D0               	goto	l488
  4747     00C4                     u2990:
  4748     00C4                     l3083:
  4749     00C4  1A73               	btfsc	_csFlag,4
  4750     00C5  28C7               	goto	u3001
  4751     00C6  28C8               	goto	u3000
  4752     00C7                     u3001:
  4753     00C7  28D0               	goto	l488
  4754     00C8                     u3000:
  4755     00C8                     l3085:
  4756     00C8  1EF3               	btfss	_csFlag,5
  4757     00C9  28CB               	goto	u3011
  4758     00CA  28CC               	goto	u3010
  4759     00CB                     u3011:
  4760     00CB  28D0               	goto	l488
  4761     00CC                     u3010:
  4762     00CC                     l3087:
  4763                           
  4764                           ;tundra.c: 316:     LOBEAM_ON();
  4765     00CC  3186  2600  3180   	fcall	_LOBEAM_ON
  4766     00CF  2876               	goto	l3041
  4767     00D0                     l488:
  4768     00D0  1973               	btfsc	_csFlag,2
  4769     00D1  28D3               	goto	u3021
  4770     00D2  28D4               	goto	u3020
  4771     00D3                     u3021:
  4772     00D3  28E1               	goto	l490
  4773     00D4                     u3020:
  4774     00D4                     l3093:
  4775     00D4  1DF3               	btfss	_csFlag,3
  4776     00D5  28D7               	goto	u3031
  4777     00D6  28D8               	goto	u3030
  4778     00D7                     u3031:
  4779     00D7  28E1               	goto	l490
  4780     00D8                     u3030:
  4781     00D8                     l3095:
  4782     00D8  1E73               	btfss	_csFlag,4
  4783     00D9  28DB               	goto	u3041
  4784     00DA  28DC               	goto	u3040
  4785     00DB                     u3041:
  4786     00DB  28E1               	goto	l490
  4787     00DC                     u3040:
  4788     00DC                     l3097:
  4789     00DC  1AF3               	btfsc	_csFlag,5
  4790     00DD  28DF               	goto	u3051
  4791     00DE  28E0               	goto	u3050
  4792     00DF                     u3051:
  4793     00DF  28E1               	goto	l490
  4794     00E0                     u3050:
  4795     00E0  28CC               	goto	l3087
  4796     00E1                     l490:
  4797     00E1  1973               	btfsc	_csFlag,2
  4798     00E2  28E4               	goto	u3061
  4799     00E3  28E5               	goto	u3060
  4800     00E4                     u3061:
  4801     00E4  28F2               	goto	l492
  4802     00E5                     u3060:
  4803     00E5                     l3105:
  4804     00E5  1DF3               	btfss	_csFlag,3
  4805     00E6  28E8               	goto	u3071
  4806     00E7  28E9               	goto	u3070
  4807     00E8                     u3071:
  4808     00E8  28F2               	goto	l492
  4809     00E9                     u3070:
  4810     00E9                     l3107:
  4811     00E9  1E73               	btfss	_csFlag,4
  4812     00EA  28EC               	goto	u3081
  4813     00EB  28ED               	goto	u3080
  4814     00EC                     u3081:
  4815     00EC  28F2               	goto	l492
  4816     00ED                     u3080:
  4817     00ED                     l3109:
  4818     00ED  1EF3               	btfss	_csFlag,5
  4819     00EE  28F0               	goto	u3091
  4820     00EF  28F1               	goto	u3090
  4821     00F0                     u3091:
  4822     00F0  28F2               	goto	l492
  4823     00F1                     u3090:
  4824     00F1  28CC               	goto	l3087
  4825     00F2                     l492:
  4826     00F2  1D73               	btfss	_csFlag,2
  4827     00F3  28F5               	goto	u3101
  4828     00F4  28F6               	goto	u3100
  4829     00F5                     u3101:
  4830     00F5  2903               	goto	l494
  4831     00F6                     u3100:
  4832     00F6                     l3117:
  4833     00F6  19F3               	btfsc	_csFlag,3
  4834     00F7  28F9               	goto	u3111
  4835     00F8  28FA               	goto	u3110
  4836     00F9                     u3111:
  4837     00F9  2903               	goto	l494
  4838     00FA                     u3110:
  4839     00FA                     l3119:
  4840     00FA  1A73               	btfsc	_csFlag,4
  4841     00FB  28FD               	goto	u3121
  4842     00FC  28FE               	goto	u3120
  4843     00FD                     u3121:
  4844     00FD  2903               	goto	l494
  4845     00FE                     u3120:
  4846     00FE                     l3121:
  4847     00FE  1AF3               	btfsc	_csFlag,5
  4848     00FF  2901               	goto	u3131
  4849     0100  2902               	goto	u3130
  4850     0101                     u3131:
  4851     0101  2903               	goto	l494
  4852     0102                     u3130:
  4853     0102  2859               	goto	l3027
  4854     0103                     l494:
  4855     0103  1D73               	btfss	_csFlag,2
  4856     0104  2906               	goto	u3141
  4857     0105  2907               	goto	u3140
  4858     0106                     u3141:
  4859     0106  2914               	goto	l496
  4860     0107                     u3140:
  4861     0107                     l3129:
  4862     0107  19F3               	btfsc	_csFlag,3
  4863     0108  290A               	goto	u3151
  4864     0109  290B               	goto	u3150
  4865     010A                     u3151:
  4866     010A  2914               	goto	l496
  4867     010B                     u3150:
  4868     010B                     l3131:
  4869     010B  1A73               	btfsc	_csFlag,4
  4870     010C  290E               	goto	u3161
  4871     010D  290F               	goto	u3160
  4872     010E                     u3161:
  4873     010E  2914               	goto	l496
  4874     010F                     u3160:
  4875     010F                     l3133:
  4876     010F  1EF3               	btfss	_csFlag,5
  4877     0110  2912               	goto	u3171
  4878     0111  2913               	goto	u3170
  4879     0112                     u3171:
  4880     0112  2914               	goto	l496
  4881     0113                     u3170:
  4882     0113  2873               	goto	l3039
  4883     0114                     l496:
  4884     0114  1D73               	btfss	_csFlag,2
  4885     0115  2917               	goto	u3181
  4886     0116  2918               	goto	u3180
  4887     0117                     u3181:
  4888     0117  2925               	goto	l498
  4889     0118                     u3180:
  4890     0118                     l3141:
  4891     0118  19F3               	btfsc	_csFlag,3
  4892     0119  291B               	goto	u3191
  4893     011A  291C               	goto	u3190
  4894     011B                     u3191:
  4895     011B  2925               	goto	l498
  4896     011C                     u3190:
  4897     011C                     l3143:
  4898     011C  1E73               	btfss	_csFlag,4
  4899     011D  291F               	goto	u3201
  4900     011E  2920               	goto	u3200
  4901     011F                     u3201:
  4902     011F  2925               	goto	l498
  4903     0120                     u3200:
  4904     0120                     l3145:
  4905     0120  1AF3               	btfsc	_csFlag,5
  4906     0121  2923               	goto	u3211
  4907     0122  2924               	goto	u3210
  4908     0123                     u3211:
  4909     0123  2925               	goto	l498
  4910     0124                     u3210:
  4911     0124  288D               	goto	l3051
  4912     0125                     l498:
  4913     0125  1D73               	btfss	_csFlag,2
  4914     0126  2928               	goto	u3221
  4915     0127  2929               	goto	u3220
  4916     0128                     u3221:
  4917     0128  2936               	goto	l500
  4918     0129                     u3220:
  4919     0129                     l3153:
  4920     0129  19F3               	btfsc	_csFlag,3
  4921     012A  292C               	goto	u3231
  4922     012B  292D               	goto	u3230
  4923     012C                     u3231:
  4924     012C  2936               	goto	l500
  4925     012D                     u3230:
  4926     012D                     l3155:
  4927     012D  1E73               	btfss	_csFlag,4
  4928     012E  2930               	goto	u3241
  4929     012F  2931               	goto	u3240
  4930     0130                     u3241:
  4931     0130  2936               	goto	l500
  4932     0131                     u3240:
  4933     0131                     l3157:
  4934     0131  1EF3               	btfss	_csFlag,5
  4935     0132  2934               	goto	u3251
  4936     0133  2935               	goto	u3250
  4937     0134                     u3251:
  4938     0134  2936               	goto	l500
  4939     0135                     u3250:
  4940     0135  288D               	goto	l3051
  4941     0136                     l500:
  4942     0136  1D73               	btfss	_csFlag,2
  4943     0137  2939               	goto	u3261
  4944     0138  293A               	goto	u3260
  4945     0139                     u3261:
  4946     0139  294D               	goto	l502
  4947     013A                     u3260:
  4948     013A                     l3165:
  4949     013A  1DF3               	btfss	_csFlag,3
  4950     013B  293D               	goto	u3271
  4951     013C  293E               	goto	u3270
  4952     013D                     u3271:
  4953     013D  294D               	goto	l502
  4954     013E                     u3270:
  4955     013E                     l3167:
  4956     013E  1A73               	btfsc	_csFlag,4
  4957     013F  2941               	goto	u3281
  4958     0140  2942               	goto	u3280
  4959     0141                     u3281:
  4960     0141  294D               	goto	l502
  4961     0142                     u3280:
  4962     0142                     l3169:
  4963     0142  1AF3               	btfsc	_csFlag,5
  4964     0143  2945               	goto	u3291
  4965     0144  2946               	goto	u3290
  4966     0145                     u3291:
  4967     0145  294D               	goto	l502
  4968     0146                     u3290:
  4969     0146                     l3171:
  4970                           
  4971                           ;tundra.c: 344:     LOBEAM_ON();
  4972     0146  3186  2600  3180   	fcall	_LOBEAM_ON
  4973     0149                     l3173:
  4974                           
  4975                           ;tundra.c: 345:     HIBEAM_ON();
  4976     0149  3186  266B  3180   	fcall	_HIBEAM_ON
  4977     014C  285F               	goto	l3031
  4978     014D                     l502:
  4979     014D  1D73               	btfss	_csFlag,2
  4980     014E  2950               	goto	u3301
  4981     014F  2951               	goto	u3300
  4982     0150                     u3301:
  4983     0150  2964               	goto	l504
  4984     0151                     u3300:
  4985     0151                     l3177:
  4986     0151  1DF3               	btfss	_csFlag,3
  4987     0152  2954               	goto	u3311
  4988     0153  2955               	goto	u3310
  4989     0154                     u3311:
  4990     0154  2964               	goto	l504
  4991     0155                     u3310:
  4992     0155                     l3179:
  4993     0155  1A73               	btfsc	_csFlag,4
  4994     0156  2958               	goto	u3321
  4995     0157  2959               	goto	u3320
  4996     0158                     u3321:
  4997     0158  2964               	goto	l504
  4998     0159                     u3320:
  4999     0159                     l3181:
  5000     0159  1EF3               	btfss	_csFlag,5
  5001     015A  295C               	goto	u3331
  5002     015B  295D               	goto	u3330
  5003     015C                     u3331:
  5004     015C  2964               	goto	l504
  5005     015D                     u3330:
  5006     015D                     l3183:
  5007                           
  5008                           ;tundra.c: 348:     LOBEAM_ON();
  5009     015D  3186  2600  3180   	fcall	_LOBEAM_ON
  5010     0160                     l3185:
  5011                           
  5012                           ;tundra.c: 349:     HIBEAM_ON();
  5013     0160  3186  266B  3180   	fcall	_HIBEAM_ON
  5014     0163  2879               	goto	l3043
  5015     0164                     l504:
  5016     0164  1D73               	btfss	_csFlag,2
  5017     0165  2967               	goto	u3341
  5018     0166  2968               	goto	u3340
  5019     0167                     u3341:
  5020     0167  2975               	goto	l506
  5021     0168                     u3340:
  5022     0168                     l3189:
  5023     0168  1DF3               	btfss	_csFlag,3
  5024     0169  296B               	goto	u3351
  5025     016A  296C               	goto	u3350
  5026     016B                     u3351:
  5027     016B  2975               	goto	l506
  5028     016C                     u3350:
  5029     016C                     l3191:
  5030     016C  1E73               	btfss	_csFlag,4
  5031     016D  296F               	goto	u3361
  5032     016E  2970               	goto	u3360
  5033     016F                     u3361:
  5034     016F  2975               	goto	l506
  5035     0170                     u3360:
  5036     0170                     l3193:
  5037     0170  1AF3               	btfsc	_csFlag,5
  5038     0171  2973               	goto	u3371
  5039     0172  2974               	goto	u3370
  5040     0173                     u3371:
  5041     0173  2975               	goto	l506
  5042     0174                     u3370:
  5043     0174  295D               	goto	l3183
  5044     0175                     l506:
  5045     0175  1D73               	btfss	_csFlag,2
  5046     0176  2978               	goto	u3381
  5047     0177  2979               	goto	u3380
  5048     0178                     u3381:
  5049     0178  2986               	goto	l503
  5050     0179                     u3380:
  5051     0179                     l3201:
  5052     0179  1DF3               	btfss	_csFlag,3
  5053     017A  297C               	goto	u3391
  5054     017B  297D               	goto	u3390
  5055     017C                     u3391:
  5056     017C  2986               	goto	l503
  5057     017D                     u3390:
  5058     017D                     l3203:
  5059     017D  1E73               	btfss	_csFlag,4
  5060     017E  2980               	goto	u3401
  5061     017F  2981               	goto	u3400
  5062     0180                     u3401:
  5063     0180  2986               	goto	l503
  5064     0181                     u3400:
  5065     0181                     l3205:
  5066     0181  1EF3               	btfss	_csFlag,5
  5067     0182  2984               	goto	u3411
  5068     0183  2985               	goto	u3410
  5069     0184                     u3411:
  5070     0184  2986               	goto	l503
  5071     0185                     u3410:
  5072     0185  295D               	goto	l3183
  5073     0186                     l503:
  5074     0186                     l509:
  5075     0186  0008               	return
  5076     0187                     __end_of_LED_control_HiPe:
  5077                           
  5078                           	psect	text12
  5079     05F7                     __ptext12:	
  5080 ;; *************** function _POS_ON_HiPe *****************
  5081 ;; Defined at:
  5082 ;;		line 15 in file "LED_output.c"
  5083 ;; Parameters:    Size  Location     Type
  5084 ;;		None
  5085 ;; Auto vars:     Size  Location     Type
  5086 ;;		None
  5087 ;; Return value:  Size  Location     Type
  5088 ;;                  1    wreg      void 
  5089 ;; Registers used:
  5090 ;;		wreg, status,2, status,0, pclath, cstack
  5091 ;; Tracked objects:
  5092 ;;		On entry : 0/0
  5093 ;;		On exit  : 0/0
  5094 ;;		Unchanged: 0/0
  5095 ;; Data sizes:     COMMON   BANK0   BANK1   BANK2   BANK3   BANK4   BANK5   BANK6
  5096 ;;      Params:         0       0       0       0       0       0       0       0
  5097 ;;      Locals:         0       0       0       0       0       0       0       0
  5098 ;;      Temps:          0       0       0       0       0       0       0       0
  5099 ;;      Totals:         0       0       0       0       0       0       0       0
  5100 ;;Total ram usage:        0 bytes
  5101 ;; Hardware stack levels used: 1
  5102 ;; Hardware stack levels required when called: 5
  5103 ;; This function calls:
  5104 ;;		_PWM4_LoadDutyValue
  5105 ;; This function is called by:
  5106 ;;		_to_do_signal_timeout
  5107 ;;		_to_do_unlock
  5108 ;;		_LED_control_HiPe
  5109 ;; This function uses a non-reentrant model
  5110 ;;
  5111                           
  5112     05F7                     _POS_ON_HiPe:	
  5113                           ;psect for function _POS_ON_HiPe
  5114                           
  5115     05F7                     l2941:	
  5116                           ;incstack = 0
  5117                           ; Regs used in _POS_ON_HiPe: [wreg+status,2+status,0+pclath+cstack]
  5118                           
  5119                           
  5120                           ;LED_output.c: 16:     PWM4_LoadDutyValue((80));
  5121     05F7  3050               	movlw	80
  5122     05F8  0020               	movlb	0	; select bank0
  5123     05F9  00C6               	movwf	PWM4_LoadDutyValue@dutyValue
  5124     05FA  3000               	movlw	0
  5125     05FB  00C7               	movwf	PWM4_LoadDutyValue@dutyValue+1
  5126     05FC  3184  2466  3185   	fcall	_PWM4_LoadDutyValue
  5127     05FF                     l629:
  5128     05FF  0008               	return
  5129     0600                     __end_of_POS_ON_HiPe:
  5130                           
  5131                           	psect	text13
  5132     0665                     __ptext13:	
  5133 ;; *************** function _P2_POS2_ON *****************
  5134 ;; Defined at:
  5135 ;;		line 31 in file "LED_output.c"
  5136 ;; Parameters:    Size  Location     Type
  5137 ;;		None
  5138 ;; Auto vars:     Size  Location     Type
  5139 ;;		None
  5140 ;; Return value:  Size  Location     Type
  5141 ;;                  1    wreg      void 
  5142 ;; Registers used:
  5143 ;;		None
  5144 ;; Tracked objects:
  5145 ;;		On entry : 0/0
  5146 ;;		On exit  : 0/0
  5147 ;;		Unchanged: 0/0
  5148 ;; Data sizes:     COMMON   BANK0   BANK1   BANK2   BANK3   BANK4   BANK5   BANK6
  5149 ;;      Params:         0       0       0       0       0       0       0       0
  5150 ;;      Locals:         0       0       0       0       0       0       0       0
  5151 ;;      Temps:          0       0       0       0       0       0       0       0
  5152 ;;      Totals:         0       0       0       0       0       0       0       0
  5153 ;;Total ram usage:        0 bytes
  5154 ;; Hardware stack levels used: 1
  5155 ;; Hardware stack levels required when called: 4
  5156 ;; This function calls:
  5157 ;;		Nothing
  5158 ;; This function is called by:
  5159 ;;		_to_do_signal_timeout
  5160 ;;		_to_do_unlock
  5161 ;;		_LED_control_HiPe
  5162 ;;		_LED_control_LoPe
  5163 ;; This function uses a non-reentrant model
  5164 ;;
  5165                           
  5166     0665                     _P2_POS2_ON:	
  5167                           ;psect for function _P2_POS2_ON
  5168                           
  5169     0665                     l2935:	
  5170                           ;incstack = 0
  5171                           ; Regs used in _P2_POS2_ON: []
  5172                           
  5173     0665  0022               	movlb	2	; select bank2
  5174     0666  148C               	bsf	12,1	;volatile
  5175     0667                     l641:
  5176     0667  0008               	return
  5177     0668                     __end_of_P2_POS2_ON:
  5178                           
  5179                           	psect	text14
  5180     0668                     __ptext14:	
  5181 ;; *************** function _P2_POS2_OFF *****************
  5182 ;; Defined at:
  5183 ;;		line 32 in file "LED_output.c"
  5184 ;; Parameters:    Size  Location     Type
  5185 ;;		None
  5186 ;; Auto vars:     Size  Location     Type
  5187 ;;		None
  5188 ;; Return value:  Size  Location     Type
  5189 ;;                  1    wreg      void 
  5190 ;; Registers used:
  5191 ;;		None
  5192 ;; Tracked objects:
  5193 ;;		On entry : 0/0
  5194 ;;		On exit  : 0/0
  5195 ;;		Unchanged: 0/0
  5196 ;; Data sizes:     COMMON   BANK0   BANK1   BANK2   BANK3   BANK4   BANK5   BANK6
  5197 ;;      Params:         0       0       0       0       0       0       0       0
  5198 ;;      Locals:         0       0       0       0       0       0       0       0
  5199 ;;      Temps:          0       0       0       0       0       0       0       0
  5200 ;;      Totals:         0       0       0       0       0       0       0       0
  5201 ;;Total ram usage:        0 bytes
  5202 ;; Hardware stack levels used: 1
  5203 ;; Hardware stack levels required when called: 4
  5204 ;; This function calls:
  5205 ;;		Nothing
  5206 ;; This function is called by:
  5207 ;;		_to_do_lamp_off
  5208 ;;		_LED_control_HiPe
  5209 ;;		_LED_control_LoPe
  5210 ;; This function uses a non-reentrant model
  5211 ;;
  5212                           
  5213     0668                     _P2_POS2_OFF:	
  5214                           ;psect for function _P2_POS2_OFF
  5215                           
  5216     0668                     l2945:	
  5217                           ;incstack = 0
  5218                           ; Regs used in _P2_POS2_OFF: []
  5219                           
  5220     0668  0022               	movlb	2	; select bank2
  5221     0669  108C               	bcf	12,1	;volatile
  5222     066A                     l644:
  5223     066A  0008               	return
  5224     066B                     __end_of_P2_POS2_OFF:
  5225                           
  5226                           	psect	text15
  5227     0600                     __ptext15:	
  5228 ;; *************** function _LOBEAM_ON *****************
  5229 ;; Defined at:
  5230 ;;		line 23 in file "LED_output.c"
  5231 ;; Parameters:    Size  Location     Type
  5232 ;;		None
  5233 ;; Auto vars:     Size  Location     Type
  5234 ;;		None
  5235 ;; Return value:  Size  Location     Type
  5236 ;;                  1    wreg      void 
  5237 ;; Registers used:
  5238 ;;		wreg, status,2, status,0, pclath, cstack
  5239 ;; Tracked objects:
  5240 ;;		On entry : 0/0
  5241 ;;		On exit  : 0/0
  5242 ;;		Unchanged: 0/0
  5243 ;; Data sizes:     COMMON   BANK0   BANK1   BANK2   BANK3   BANK4   BANK5   BANK6
  5244 ;;      Params:         0       0       0       0       0       0       0       0
  5245 ;;      Locals:         0       0       0       0       0       0       0       0
  5246 ;;      Temps:          0       0       0       0       0       0       0       0
  5247 ;;      Totals:         0       0       0       0       0       0       0       0
  5248 ;;Total ram usage:        0 bytes
  5249 ;; Hardware stack levels used: 1
  5250 ;; Hardware stack levels required when called: 5
  5251 ;; This function calls:
  5252 ;;		_EPWM1_LoadDutyValue
  5253 ;; This function is called by:
  5254 ;;		_to_do_signal_timeout
  5255 ;;		_LED_control_HiPe
  5256 ;; This function uses a non-reentrant model
  5257 ;;
  5258                           
  5259     0600                     _LOBEAM_ON:	
  5260                           ;psect for function _LOBEAM_ON
  5261                           
  5262     0600                     l2939:	
  5263                           ;incstack = 0
  5264                           ; Regs used in _LOBEAM_ON: [wreg+status,2+status,0+pclath+cstack]
  5265                           
  5266                           
  5267                           ;LED_output.c: 24:     EPWM1_LoadDutyValue((804));
  5268     0600  3024               	movlw	36
  5269     0601  0020               	movlb	0	; select bank0
  5270     0602  00C6               	movwf	EPWM1_LoadDutyValue@dutyValue
  5271     0603  3003               	movlw	3
  5272     0604  00C7               	movwf	EPWM1_LoadDutyValue@dutyValue+1
  5273     0605  3184  2482  3186   	fcall	_EPWM1_LoadDutyValue
  5274     0608                     l635:
  5275     0608  0008               	return
  5276     0609                     __end_of_LOBEAM_ON:
  5277                           
  5278                           	psect	text16
  5279     0624                     __ptext16:	
  5280 ;; *************** function _LOBEAM_OFF *****************
  5281 ;; Defined at:
  5282 ;;		line 27 in file "LED_output.c"
  5283 ;; Parameters:    Size  Location     Type
  5284 ;;		None
  5285 ;; Auto vars:     Size  Location     Type
  5286 ;;		None
  5287 ;; Return value:  Size  Location     Type
  5288 ;;                  1    wreg      void 
  5289 ;; Registers used:
  5290 ;;		wreg, status,2, status,0, pclath, cstack
  5291 ;; Tracked objects:
  5292 ;;		On entry : 0/0
  5293 ;;		On exit  : 0/0
  5294 ;;		Unchanged: 0/0
  5295 ;; Data sizes:     COMMON   BANK0   BANK1   BANK2   BANK3   BANK4   BANK5   BANK6
  5296 ;;      Params:         0       0       0       0       0       0       0       0
  5297 ;;      Locals:         0       0       0       0       0       0       0       0
  5298 ;;      Temps:          0       0       0       0       0       0       0       0
  5299 ;;      Totals:         0       0       0       0       0       0       0       0
  5300 ;;Total ram usage:        0 bytes
  5301 ;; Hardware stack levels used: 1
  5302 ;; Hardware stack levels required when called: 5
  5303 ;; This function calls:
  5304 ;;		_EPWM1_LoadDutyValue
  5305 ;; This function is called by:
  5306 ;;		_to_do_unlock
  5307 ;;		_to_do_lamp_off
  5308 ;;		_LED_control_HiPe
  5309 ;; This function uses a non-reentrant model
  5310 ;;
  5311                           
  5312     0624                     _LOBEAM_OFF:	
  5313                           ;psect for function _LOBEAM_OFF
  5314                           
  5315     0624                     l2943:	
  5316                           ;incstack = 0
  5317                           ; Regs used in _LOBEAM_OFF: [wreg+status,2+status,0+pclath+cstack]
  5318                           
  5319                           
  5320                           ;LED_output.c: 28:     EPWM1_LoadDutyValue(0);
  5321     0624  3000               	movlw	0
  5322     0625  0020               	movlb	0	; select bank0
  5323     0626  00C6               	movwf	EPWM1_LoadDutyValue@dutyValue
  5324     0627  00C7               	movwf	EPWM1_LoadDutyValue@dutyValue+1
  5325     0628  3184  2482  3186   	fcall	_EPWM1_LoadDutyValue
  5326     062B                     l638:
  5327     062B  0008               	return
  5328     062C                     __end_of_LOBEAM_OFF:
  5329                           
  5330                           	psect	text17
  5331     066B                     __ptext17:	
  5332 ;; *************** function _HIBEAM_ON *****************
  5333 ;; Defined at:
  5334 ;;		line 34 in file "LED_output.c"
  5335 ;; Parameters:    Size  Location     Type
  5336 ;;		None
  5337 ;; Auto vars:     Size  Location     Type
  5338 ;;		None
  5339 ;; Return value:  Size  Location     Type
  5340 ;;                  1    wreg      void 
  5341 ;; Registers used:
  5342 ;;		None
  5343 ;; Tracked objects:
  5344 ;;		On entry : 0/0
  5345 ;;		On exit  : 0/0
  5346 ;;		Unchanged: 0/0
  5347 ;; Data sizes:     COMMON   BANK0   BANK1   BANK2   BANK3   BANK4   BANK5   BANK6
  5348 ;;      Params:         0       0       0       0       0       0       0       0
  5349 ;;      Locals:         0       0       0       0       0       0       0       0
  5350 ;;      Temps:          0       0       0       0       0       0       0       0
  5351 ;;      Totals:         0       0       0       0       0       0       0       0
  5352 ;;Total ram usage:        0 bytes
  5353 ;; Hardware stack levels used: 1
  5354 ;; Hardware stack levels required when called: 4
  5355 ;; This function calls:
  5356 ;;		Nothing
  5357 ;; This function is called by:
  5358 ;;		_LED_control_HiPe
  5359 ;;		_LED_control_LoPe
  5360 ;; This function uses a non-reentrant model
  5361 ;;
  5362                           
  5363     066B                     _HIBEAM_ON:	
  5364                           ;psect for function _HIBEAM_ON
  5365                           
  5366     066B                     l2951:	
  5367                           ;incstack = 0
  5368                           ; Regs used in _HIBEAM_ON: []
  5369                           
  5370     066B  0022               	movlb	2	; select bank2
  5371     066C  100C               	bcf	12,0	;volatile
  5372     066D                     l647:
  5373     066D  0008               	return
  5374     066E                     __end_of_HIBEAM_ON:
  5375                           
  5376                           	psect	text18
  5377     062C                     __ptext18:	
  5378 ;; *************** function _DRL_POS_OFF_HiPe *****************
  5379 ;; Defined at:
  5380 ;;		line 19 in file "LED_output.c"
  5381 ;; Parameters:    Size  Location     Type
  5382 ;;		None
  5383 ;; Auto vars:     Size  Location     Type
  5384 ;;		None
  5385 ;; Return value:  Size  Location     Type
  5386 ;;                  1    wreg      void 
  5387 ;; Registers used:
  5388 ;;		wreg, status,2, status,0, pclath, cstack
  5389 ;; Tracked objects:
  5390 ;;		On entry : 0/0
  5391 ;;		On exit  : 0/0
  5392 ;;		Unchanged: 0/0
  5393 ;; Data sizes:     COMMON   BANK0   BANK1   BANK2   BANK3   BANK4   BANK5   BANK6
  5394 ;;      Params:         0       0       0       0       0       0       0       0
  5395 ;;      Locals:         0       0       0       0       0       0       0       0
  5396 ;;      Temps:          0       0       0       0       0       0       0       0
  5397 ;;      Totals:         0       0       0       0       0       0       0       0
  5398 ;;Total ram usage:        0 bytes
  5399 ;; Hardware stack levels used: 1
  5400 ;; Hardware stack levels required when called: 5
  5401 ;; This function calls:
  5402 ;;		_PWM4_LoadDutyValue
  5403 ;; This function is called by:
  5404 ;;		_to_do_lamp_off
  5405 ;;		_LED_control_HiPe
  5406 ;; This function uses a non-reentrant model
  5407 ;;
  5408                           
  5409     062C                     _DRL_POS_OFF_HiPe:	
  5410                           ;psect for function _DRL_POS_OFF_HiPe
  5411                           
  5412     062C                     l2947:	
  5413                           ;incstack = 0
  5414                           ; Regs used in _DRL_POS_OFF_HiPe: [wreg+status,2+status,0+pclath+cstack]
  5415                           
  5416                           
  5417                           ;LED_output.c: 20:     PWM4_LoadDutyValue(0);
  5418     062C  3000               	movlw	0
  5419     062D  0020               	movlb	0	; select bank0
  5420     062E  00C6               	movwf	PWM4_LoadDutyValue@dutyValue
  5421     062F  00C7               	movwf	PWM4_LoadDutyValue@dutyValue+1
  5422     0630  3184  2466  3186   	fcall	_PWM4_LoadDutyValue
  5423     0633                     l632:
  5424     0633  0008               	return
  5425     0634                     __end_of_DRL_POS_OFF_HiPe:
  5426                           
  5427                           	psect	text19
  5428     0609                     __ptext19:	
  5429 ;; *************** function _DRL_ON_HiPe *****************
  5430 ;; Defined at:
  5431 ;;		line 11 in file "LED_output.c"
  5432 ;; Parameters:    Size  Location     Type
  5433 ;;		None
  5434 ;; Auto vars:     Size  Location     Type
  5435 ;;		None
  5436 ;; Return value:  Size  Location     Type
  5437 ;;                  1    wreg      void 
  5438 ;; Registers used:
  5439 ;;		wreg, status,2, status,0, pclath, cstack
  5440 ;; Tracked objects:
  5441 ;;		On entry : 0/0
  5442 ;;		On exit  : 0/0
  5443 ;;		Unchanged: 0/0
  5444 ;; Data sizes:     COMMON   BANK0   BANK1   BANK2   BANK3   BANK4   BANK5   BANK6
  5445 ;;      Params:         0       0       0       0       0       0       0       0
  5446 ;;      Locals:         0       0       0       0       0       0       0       0
  5447 ;;      Temps:          0       0       0       0       0       0       0       0
  5448 ;;      Totals:         0       0       0       0       0       0       0       0
  5449 ;;Total ram usage:        0 bytes
  5450 ;; Hardware stack levels used: 1
  5451 ;; Hardware stack levels required when called: 5
  5452 ;; This function calls:
  5453 ;;		_PWM4_LoadDutyValue
  5454 ;; This function is called by:
  5455 ;;		_LED_control_HiPe
  5456 ;; This function uses a non-reentrant model
  5457 ;;
  5458                           
  5459     0609                     _DRL_ON_HiPe:	
  5460                           ;psect for function _DRL_ON_HiPe
  5461                           
  5462     0609                     l2949:	
  5463                           ;incstack = 0
  5464                           ; Regs used in _DRL_ON_HiPe: [wreg+status,2+status,0+pclath+cstack]
  5465                           
  5466                           
  5467                           ;LED_output.c: 12:     PWM4_LoadDutyValue((804));
  5468     0609  3024               	movlw	36
  5469     060A  0020               	movlb	0	; select bank0
  5470     060B  00C6               	movwf	PWM4_LoadDutyValue@dutyValue
  5471     060C  3003               	movlw	3
  5472     060D  00C7               	movwf	PWM4_LoadDutyValue@dutyValue+1
  5473     060E  3184  2466  3186   	fcall	_PWM4_LoadDutyValue
  5474     0611                     l626:
  5475     0611  0008               	return
  5476     0612                     __end_of_DRL_ON_HiPe:
  5477                           
  5478                           	psect	text20
  5479     05E3                     __ptext20:	
  5480 ;; *************** function _Is_HiPe *****************
  5481 ;; Defined at:
  5482 ;;		line 37 in file "LED_output.c"
  5483 ;; Parameters:    Size  Location     Type
  5484 ;;		None
  5485 ;; Auto vars:     Size  Location     Type
  5486 ;;		None
  5487 ;; Return value:  Size  Location     Type
  5488 ;;                  1    wreg      _Bool 
  5489 ;; Registers used:
  5490 ;;		wreg, status,2, status,0
  5491 ;; Tracked objects:
  5492 ;;		On entry : 0/0
  5493 ;;		On exit  : 0/0
  5494 ;;		Unchanged: 0/0
  5495 ;; Data sizes:     COMMON   BANK0   BANK1   BANK2   BANK3   BANK4   BANK5   BANK6
  5496 ;;      Params:         0       0       0       0       0       0       0       0
  5497 ;;      Locals:         0       0       0       0       0       0       0       0
  5498 ;;      Temps:          0       0       0       0       0       0       0       0
  5499 ;;      Totals:         0       0       0       0       0       0       0       0
  5500 ;;Total ram usage:        0 bytes
  5501 ;; Hardware stack levels used: 1
  5502 ;; Hardware stack levels required when called: 4
  5503 ;; This function calls:
  5504 ;;		Nothing
  5505 ;; This function is called by:
  5506 ;;		_LED_control
  5507 ;; This function uses a non-reentrant model
  5508 ;;
  5509                           
  5510     05E3                     _Is_HiPe:	
  5511                           ;psect for function _Is_HiPe
  5512                           
  5513     05E3                     l3001:	
  5514                           ;incstack = 0
  5515                           ; Regs used in _Is_HiPe: [wreg+status,2+status,0]
  5516                           
  5517                           
  5518                           ;LED_output.c: 38:   if (fLamp_Conf == 1)
  5519     05E3  0020               	movlb	0	; select bank0
  5520     05E4  033F               	decf	_fLamp_Conf,w
  5521     05E5  1D03               	btfss	3,2
  5522     05E6  2DE8               	goto	u2761
  5523     05E7  2DE9               	goto	u2760
  5524     05E8                     u2761:
  5525     05E8  2DEB               	goto	l3009
  5526     05E9                     u2760:
  5527     05E9                     l3003:
  5528                           
  5529                           ;LED_output.c: 39:     return 1;
  5530     05E9  3001               	movlw	1
  5531     05EA  2DEC               	goto	l654
  5532     05EB                     l3009:
  5533                           
  5534                           ;LED_output.c: 41:     return 0;
  5535     05EB  3000               	movlw	0
  5536     05EC                     l654:
  5537     05EC  0008               	return
  5538     05ED                     __end_of_Is_HiPe:
  5539                           
  5540                           	psect	text21
  5541     04BA                     __ptext21:	
  5542 ;; *************** function _sofaware_initialize *****************
  5543 ;; Defined at:
  5544 ;;		line 586 in file "tundra.c"
  5545 ;; Parameters:    Size  Location     Type
  5546 ;;		None
  5547 ;; Auto vars:     Size  Location     Type
  5548 ;;		None
  5549 ;; Return value:  Size  Location     Type
  5550 ;;                  1    wreg      void 
  5551 ;; Registers used:
  5552 ;;		wreg, status,2, status,0, pclath, cstack
  5553 ;; Tracked objects:
  5554 ;;		On entry : 0/0
  5555 ;;		On exit  : 0/0
  5556 ;;		Unchanged: 0/0
  5557 ;; Data sizes:     COMMON   BANK0   BANK1   BANK2   BANK3   BANK4   BANK5   BANK6
  5558 ;;      Params:         0       0       0       0       0       0       0       0
  5559 ;;      Locals:         0       0       0       0       0       0       0       0
  5560 ;;      Temps:          0       0       0       0       0       0       0       0
  5561 ;;      Totals:         0       0       0       0       0       0       0       0
  5562 ;;Total ram usage:        0 bytes
  5563 ;; Hardware stack levels used: 1
  5564 ;; Hardware stack levels required when called: 7
  5565 ;; This function calls:
  5566 ;;		_Clear_No_Call_Warning
  5567 ;;		_EPWM1_LoadDutyValue
  5568 ;;		_HIBEAM_OFF
  5569 ;;		_PWM4_LoadDutyValue
  5570 ;; This function is called by:
  5571 ;;		_main
  5572 ;; This function uses a non-reentrant model
  5573 ;;
  5574                           
  5575     04BA                     _sofaware_initialize:	
  5576                           ;psect for function _sofaware_initialize
  5577                           
  5578     04BA                     l3609:	
  5579                           ;incstack = 0
  5580                           ; Regs used in _sofaware_initialize: [wreg+status,2+status,0+pclath+cstack]
  5581                           
  5582                           
  5583                           ;tundra.c: 587:   EPWM1_LoadDutyValue(0);
  5584     04BA  3000               	movlw	0
  5585     04BB  0020               	movlb	0	; select bank0
  5586     04BC  00C6               	movwf	EPWM1_LoadDutyValue@dutyValue
  5587     04BD  00C7               	movwf	EPWM1_LoadDutyValue@dutyValue+1
  5588     04BE  3184  2482  3184   	fcall	_EPWM1_LoadDutyValue
  5589                           
  5590                           ;tundra.c: 588:   PWM4_LoadDutyValue(0);
  5591     04C1  3000               	movlw	0
  5592     04C2  0020               	movlb	0	; select bank0
  5593     04C3  00C6               	movwf	PWM4_LoadDutyValue@dutyValue
  5594     04C4  00C7               	movwf	PWM4_LoadDutyValue@dutyValue+1
  5595     04C5  3184  2466  3184   	fcall	_PWM4_LoadDutyValue
  5596     04C8                     l3611:
  5597                           
  5598                           ;tundra.c: 589:   HIBEAM_OFF();
  5599     04C8  3186  266E  3184   	fcall	_HIBEAM_OFF
  5600     04CB                     l3613:
  5601                           
  5602                           ;tundra.c: 590:   fLamp_Conf = PORTBbits.RB5;
  5603     04CB  3000               	movlw	0
  5604     04CC  0020               	movlb	0	; select bank0
  5605     04CD  1A8D               	btfsc	13,5	;volatile
  5606     04CE  3001               	movlw	1
  5607     04CF  00BF               	movwf	_fLamp_Conf
  5608     04D0                     l3615:
  5609                           
  5610                           ;tundra.c: 592:   Clear_No_Call_Warning();
  5611     04D0  3186  2695  3184   	fcall	_Clear_No_Call_Warning
  5612     04D3                     l600:
  5613     04D3  0008               	return
  5614     04D4                     __end_of_sofaware_initialize:
  5615                           
  5616                           	psect	text22
  5617     0466                     __ptext22:	
  5618 ;; *************** function _PWM4_LoadDutyValue *****************
  5619 ;; Defined at:
  5620 ;;		line 82 in file "mcc_generated_files/pwm4.c"
  5621 ;; Parameters:    Size  Location     Type
  5622 ;;  dutyValue       2    0[BANK0 ] unsigned short 
  5623 ;; Auto vars:     Size  Location     Type
  5624 ;;		None
  5625 ;; Return value:  Size  Location     Type
  5626 ;;                  1    wreg      void 
  5627 ;; Registers used:
  5628 ;;		wreg, status,2, status,0
  5629 ;; Tracked objects:
  5630 ;;		On entry : 0/0
  5631 ;;		On exit  : 0/0
  5632 ;;		Unchanged: 0/0
  5633 ;; Data sizes:     COMMON   BANK0   BANK1   BANK2   BANK3   BANK4   BANK5   BANK6
  5634 ;;      Params:         0       2       0       0       0       0       0       0
  5635 ;;      Locals:         0       0       0       0       0       0       0       0
  5636 ;;      Temps:          0       2       0       0       0       0       0       0
  5637 ;;      Totals:         0       4       0       0       0       0       0       0
  5638 ;;Total ram usage:        4 bytes
  5639 ;; Hardware stack levels used: 1
  5640 ;; Hardware stack levels required when called: 4
  5641 ;; This function calls:
  5642 ;;		Nothing
  5643 ;; This function is called by:
  5644 ;;		_sofaware_initialize
  5645 ;;		_DRL_ON_HiPe
  5646 ;;		_POS_ON_HiPe
  5647 ;;		_DRL_POS_OFF_HiPe
  5648 ;; This function uses a non-reentrant model
  5649 ;;
  5650                           
  5651     0466                     _PWM4_LoadDutyValue:	
  5652                           ;psect for function _PWM4_LoadDutyValue
  5653                           
  5654     0466                     l2919:	
  5655                           ;incstack = 0
  5656                           ; Regs used in _PWM4_LoadDutyValue: [wreg+status,2+status,0]
  5657                           
  5658                           
  5659                           ;mcc_generated_files/pwm4.c: 82: void PWM4_LoadDutyValue(uint16_t dutyValue);mcc_generat
      +                          ed_files/pwm4.c: 83: {;mcc_generated_files/pwm4.c: 85:     CCPR4L = ((dutyValue & 0x03FC
      +                          )>>2);
  5660     0466  0020               	movlb	0	; select bank0
  5661     0467  0847               	movf	PWM4_LoadDutyValue@dutyValue+1,w
  5662     0468  00C9               	movwf	??_PWM4_LoadDutyValue+1
  5663     0469  0846               	movf	PWM4_LoadDutyValue@dutyValue,w
  5664     046A  00C8               	movwf	??_PWM4_LoadDutyValue
  5665     046B  36C9               	lsrf	??_PWM4_LoadDutyValue+1,f
  5666     046C  0CC8               	rrf	??_PWM4_LoadDutyValue,f
  5667     046D  36C9               	lsrf	??_PWM4_LoadDutyValue+1,f
  5668     046E  0CC8               	rrf	??_PWM4_LoadDutyValue,f
  5669     046F  0848               	movf	??_PWM4_LoadDutyValue,w
  5670     0470  0026               	movlb	6	; select bank6
  5671     0471  0098               	movwf	24	;volatile
  5672                           
  5673                           ;mcc_generated_files/pwm4.c: 88:     CCP4CON = (uint8_t)((CCP4CON & 0xCF) | ((dutyValue 
      +                          & 0x0003)<<4));
  5674     0472  0020               	movlb	0	; select bank0
  5675     0473  0846               	movf	PWM4_LoadDutyValue@dutyValue,w
  5676     0474  3903               	andlw	3
  5677     0475  00C8               	movwf	??_PWM4_LoadDutyValue
  5678     0476  3004               	movlw	4
  5679     0477                     u2735:
  5680     0477  35C8               	lslf	??_PWM4_LoadDutyValue,f
  5681     0478  0B89               	decfsz	9,f
  5682     0479  2C77               	goto	u2735
  5683     047A  0026               	movlb	6	; select bank6
  5684     047B  081A               	movf	26,w	;volatile
  5685     047C  39CF               	andlw	207
  5686     047D  0020               	movlb	0	; select bank0
  5687     047E  0448               	iorwf	??_PWM4_LoadDutyValue,w
  5688     047F  0026               	movlb	6	; select bank6
  5689     0480  009A               	movwf	26	;volatile
  5690     0481                     l268:
  5691     0481  0008               	return
  5692     0482                     __end_of_PWM4_LoadDutyValue:
  5693                           
  5694                           	psect	text23
  5695     066E                     __ptext23:	
  5696 ;; *************** function _HIBEAM_OFF *****************
  5697 ;; Defined at:
  5698 ;;		line 35 in file "LED_output.c"
  5699 ;; Parameters:    Size  Location     Type
  5700 ;;		None
  5701 ;; Auto vars:     Size  Location     Type
  5702 ;;		None
  5703 ;; Return value:  Size  Location     Type
  5704 ;;                  1    wreg      void 
  5705 ;; Registers used:
  5706 ;;		None
  5707 ;; Tracked objects:
  5708 ;;		On entry : 0/0
  5709 ;;		On exit  : 0/0
  5710 ;;		Unchanged: 0/0
  5711 ;; Data sizes:     COMMON   BANK0   BANK1   BANK2   BANK3   BANK4   BANK5   BANK6
  5712 ;;      Params:         0       0       0       0       0       0       0       0
  5713 ;;      Locals:         0       0       0       0       0       0       0       0
  5714 ;;      Temps:          0       0       0       0       0       0       0       0
  5715 ;;      Totals:         0       0       0       0       0       0       0       0
  5716 ;;Total ram usage:        0 bytes
  5717 ;; Hardware stack levels used: 1
  5718 ;; Hardware stack levels required when called: 4
  5719 ;; This function calls:
  5720 ;;		Nothing
  5721 ;; This function is called by:
  5722 ;;		_to_do_signal_timeout
  5723 ;;		_to_do_unlock
  5724 ;;		_to_do_lamp_off
  5725 ;;		_LED_control_HiPe
  5726 ;;		_LED_control_LoPe
  5727 ;;		_sofaware_initialize
  5728 ;; This function uses a non-reentrant model
  5729 ;;
  5730                           
  5731     066E                     _HIBEAM_OFF:	
  5732                           ;psect for function _HIBEAM_OFF
  5733                           
  5734     066E                     l2937:	
  5735                           ;incstack = 0
  5736                           ; Regs used in _HIBEAM_OFF: []
  5737                           
  5738     066E  0022               	movlb	2	; select bank2
  5739     066F  140C               	bsf	12,0	;volatile
  5740     0670                     l650:
  5741     0670  0008               	return
  5742     0671                     __end_of_HIBEAM_OFF:
  5743                           
  5744                           	psect	text24
  5745     0482                     __ptext24:	
  5746 ;; *************** function _EPWM1_LoadDutyValue *****************
  5747 ;; Defined at:
  5748 ;;		line 90 in file "mcc_generated_files/epwm1.c"
  5749 ;; Parameters:    Size  Location     Type
  5750 ;;  dutyValue       2    0[BANK0 ] unsigned short 
  5751 ;; Auto vars:     Size  Location     Type
  5752 ;;		None
  5753 ;; Return value:  Size  Location     Type
  5754 ;;                  1    wreg      void 
  5755 ;; Registers used:
  5756 ;;		wreg, status,2, status,0
  5757 ;; Tracked objects:
  5758 ;;		On entry : 0/0
  5759 ;;		On exit  : 0/0
  5760 ;;		Unchanged: 0/0
  5761 ;; Data sizes:     COMMON   BANK0   BANK1   BANK2   BANK3   BANK4   BANK5   BANK6
  5762 ;;      Params:         0       2       0       0       0       0       0       0
  5763 ;;      Locals:         0       0       0       0       0       0       0       0
  5764 ;;      Temps:          0       2       0       0       0       0       0       0
  5765 ;;      Totals:         0       4       0       0       0       0       0       0
  5766 ;;Total ram usage:        4 bytes
  5767 ;; Hardware stack levels used: 1
  5768 ;; Hardware stack levels required when called: 4
  5769 ;; This function calls:
  5770 ;;		Nothing
  5771 ;; This function is called by:
  5772 ;;		_LED_control_LoPe
  5773 ;;		_sofaware_initialize
  5774 ;;		_LOBEAM_ON
  5775 ;;		_LOBEAM_OFF
  5776 ;; This function uses a non-reentrant model
  5777 ;;
  5778                           
  5779     0482                     _EPWM1_LoadDutyValue:	
  5780                           ;psect for function _EPWM1_LoadDutyValue
  5781                           
  5782     0482                     l2917:	
  5783                           ;incstack = 0
  5784                           ; Regs used in _EPWM1_LoadDutyValue: [wreg+status,2+status,0]
  5785                           
  5786                           
  5787                           ;mcc_generated_files/epwm1.c: 90: void EPWM1_LoadDutyValue(uint16_t dutyValue);mcc_gener
      +                          ated_files/epwm1.c: 91: {;mcc_generated_files/epwm1.c: 93:     CCPR1L = ((dutyValue & 0x
      +                          03FC)>>2);
  5788     0482  0020               	movlb	0	; select bank0
  5789     0483  0847               	movf	EPWM1_LoadDutyValue@dutyValue+1,w
  5790     0484  00C9               	movwf	??_EPWM1_LoadDutyValue+1
  5791     0485  0846               	movf	EPWM1_LoadDutyValue@dutyValue,w
  5792     0486  00C8               	movwf	??_EPWM1_LoadDutyValue
  5793     0487  36C9               	lsrf	??_EPWM1_LoadDutyValue+1,f
  5794     0488  0CC8               	rrf	??_EPWM1_LoadDutyValue,f
  5795     0489  36C9               	lsrf	??_EPWM1_LoadDutyValue+1,f
  5796     048A  0CC8               	rrf	??_EPWM1_LoadDutyValue,f
  5797     048B  0848               	movf	??_EPWM1_LoadDutyValue,w
  5798     048C  0025               	movlb	5	; select bank5
  5799     048D  0091               	movwf	17	;volatile
  5800                           
  5801                           ;mcc_generated_files/epwm1.c: 96:     CCP1CON = (uint8_t)((CCP1CON & 0xCF) | ((dutyValue
      +                           & 0x0003)<<4));
  5802     048E  0020               	movlb	0	; select bank0
  5803     048F  0846               	movf	EPWM1_LoadDutyValue@dutyValue,w
  5804     0490  3903               	andlw	3
  5805     0491  00C8               	movwf	??_EPWM1_LoadDutyValue
  5806     0492  3004               	movlw	4
  5807     0493                     u2725:
  5808     0493  35C8               	lslf	??_EPWM1_LoadDutyValue,f
  5809     0494  0B89               	decfsz	9,f
  5810     0495  2C93               	goto	u2725
  5811     0496  0025               	movlb	5	; select bank5
  5812     0497  0813               	movf	19,w	;volatile
  5813     0498  39CF               	andlw	207
  5814     0499  0020               	movlb	0	; select bank0
  5815     049A  0448               	iorwf	??_EPWM1_LoadDutyValue,w
  5816     049B  0025               	movlb	5	; select bank5
  5817     049C  0093               	movwf	19	;volatile
  5818     049D                     l254:
  5819     049D  0008               	return
  5820     049E                     __end_of_EPWM1_LoadDutyValue:
  5821                           
  5822                           	psect	text25
  5823     0695                     __ptext25:	
  5824 ;; *************** function _Clear_No_Call_Warning *****************
  5825 ;; Defined at:
  5826 ;;		line 128 in file "tundra.c"
  5827 ;; Parameters:    Size  Location     Type
  5828 ;;		None
  5829 ;; Auto vars:     Size  Location     Type
  5830 ;;  i               1    0        unsigned char 
  5831 ;; Return value:  Size  Location     Type
  5832 ;;                  1    wreg      void 
  5833 ;; Registers used:
  5834 ;;		status,2
  5835 ;; Tracked objects:
  5836 ;;		On entry : 0/0
  5837 ;;		On exit  : 0/0
  5838 ;;		Unchanged: 0/0
  5839 ;; Data sizes:     COMMON   BANK0   BANK1   BANK2   BANK3   BANK4   BANK5   BANK6
  5840 ;;      Params:         0       0       0       0       0       0       0       0
  5841 ;;      Locals:         0       0       0       0       0       0       0       0
  5842 ;;      Temps:          0       0       0       0       0       0       0       0
  5843 ;;      Totals:         0       0       0       0       0       0       0       0
  5844 ;;Total ram usage:        0 bytes
  5845 ;; Hardware stack levels used: 1
  5846 ;; Hardware stack levels required when called: 6
  5847 ;; This function calls:
  5848 ;;		_PIN_MANAGER_IOC
  5849 ;;		_TMR0_ReadTimer
  5850 ;;		_TMR0_Reload
  5851 ;;		_TMR0_WriteTimer
  5852 ;;		_TMR1_CheckGateValueStatus
  5853 ;;		_TMR1_HasOverflowOccured
  5854 ;;		_TMR1_ReadTimer
  5855 ;;		_TMR1_Reload
  5856 ;;		_TMR1_StartSinglePulseAcquisition
  5857 ;;		_TMR1_StartTimer
  5858 ;;		_TMR1_StopTimer
  5859 ;;		_TMR1_WriteTimer
  5860 ;;		_TMR2_HasOverflowOccured
  5861 ;;		_TMR2_LoadPeriodRegister
  5862 ;;		_TMR2_ReadTimer
  5863 ;;		_TMR2_StartTimer
  5864 ;;		_TMR2_StopTimer
  5865 ;;		_TMR2_WriteTimer
  5866 ;; This function is called by:
  5867 ;;		_sofaware_initialize
  5868 ;; This function uses a non-reentrant model
  5869 ;;
  5870                           
  5871     0695                     _Clear_No_Call_Warning:	
  5872                           ;psect for function _Clear_No_Call_Warning
  5873                           
  5874     0695                     l3405:	
  5875                           ;incstack = 0
  5876                           ; Regs used in _Clear_No_Call_Warning: [status,2]
  5877                           
  5878     0695                     l438:
  5879     0695  0008               	return
  5880     0696                     __end_of_Clear_No_Call_Warning:
  5881                           
  5882                           	psect	text26
  5883     064E                     __ptext26:	
  5884 ;; *************** function _TMR2_WriteTimer *****************
  5885 ;; Defined at:
  5886 ;;		line 100 in file "mcc_generated_files/tmr2.c"
  5887 ;; Parameters:    Size  Location     Type
  5888 ;;  timerVal        1    wreg     unsigned char 
  5889 ;; Auto vars:     Size  Location     Type
  5890 ;;  timerVal        1    0[BANK0 ] unsigned char 
  5891 ;; Return value:  Size  Location     Type
  5892 ;;                  1    wreg      void 
  5893 ;; Registers used:
  5894 ;;		wreg
  5895 ;; Tracked objects:
  5896 ;;		On entry : 0/0
  5897 ;;		On exit  : 0/0
  5898 ;;		Unchanged: 0/0
  5899 ;; Data sizes:     COMMON   BANK0   BANK1   BANK2   BANK3   BANK4   BANK5   BANK6
  5900 ;;      Params:         0       0       0       0       0       0       0       0
  5901 ;;      Locals:         0       1       0       0       0       0       0       0
  5902 ;;      Temps:          0       0       0       0       0       0       0       0
  5903 ;;      Totals:         0       1       0       0       0       0       0       0
  5904 ;;Total ram usage:        1 bytes
  5905 ;; Hardware stack levels used: 1
  5906 ;; Hardware stack levels required when called: 4
  5907 ;; This function calls:
  5908 ;;		Nothing
  5909 ;; This function is called by:
  5910 ;;		_Clear_No_Call_Warning
  5911 ;; This function uses a non-reentrant model
  5912 ;;
  5913                           
  5914     064E                     _TMR2_WriteTimer:	
  5915                           ;psect for function _TMR2_WriteTimer
  5916                           
  5917                           
  5918                           ;incstack = 0
  5919                           ; Regs used in _TMR2_WriteTimer: [wreg]
  5920                           ;TMR2_WriteTimer@timerVal stored from wreg
  5921     064E  0020               	movlb	0	; select bank0
  5922     064F  00C6               	movwf	TMR2_WriteTimer@timerVal
  5923     0650                     l2991:
  5924                           
  5925                           ;mcc_generated_files/tmr2.c: 100: void TMR2_WriteTimer(uint8_t timerVal);mcc_generated_f
      +                          iles/tmr2.c: 101: {;mcc_generated_files/tmr2.c: 103:     TMR2 = timerVal;
  5926     0650  0846               	movf	TMR2_WriteTimer@timerVal,w
  5927     0651  009A               	movwf	26	;volatile
  5928     0652                     l209:
  5929     0652  0008               	return
  5930     0653                     __end_of_TMR2_WriteTimer:
  5931                           
  5932                           	psect	text27
  5933     0671                     __ptext27:	
  5934 ;; *************** function _TMR2_StopTimer *****************
  5935 ;; Defined at:
  5936 ;;		line 85 in file "mcc_generated_files/tmr2.c"
  5937 ;; Parameters:    Size  Location     Type
  5938 ;;		None
  5939 ;; Auto vars:     Size  Location     Type
  5940 ;;		None
  5941 ;; Return value:  Size  Location     Type
  5942 ;;                  1    wreg      void 
  5943 ;; Registers used:
  5944 ;;		None
  5945 ;; Tracked objects:
  5946 ;;		On entry : 0/0
  5947 ;;		On exit  : 0/0
  5948 ;;		Unchanged: 0/0
  5949 ;; Data sizes:     COMMON   BANK0   BANK1   BANK2   BANK3   BANK4   BANK5   BANK6
  5950 ;;      Params:         0       0       0       0       0       0       0       0
  5951 ;;      Locals:         0       0       0       0       0       0       0       0
  5952 ;;      Temps:          0       0       0       0       0       0       0       0
  5953 ;;      Totals:         0       0       0       0       0       0       0       0
  5954 ;;Total ram usage:        0 bytes
  5955 ;; Hardware stack levels used: 1
  5956 ;; Hardware stack levels required when called: 4
  5957 ;; This function calls:
  5958 ;;		Nothing
  5959 ;; This function is called by:
  5960 ;;		_Clear_No_Call_Warning
  5961 ;; This function uses a non-reentrant model
  5962 ;;
  5963                           
  5964     0671                     _TMR2_StopTimer:	
  5965                           ;psect for function _TMR2_StopTimer
  5966                           
  5967     0671                     l2985:	
  5968                           ;incstack = 0
  5969                           ; Regs used in _TMR2_StopTimer: []
  5970                           
  5971                           
  5972                           ;mcc_generated_files/tmr2.c: 88:     T2CONbits.TMR2ON = 0;
  5973     0671  0020               	movlb	0	; select bank0
  5974     0672  111C               	bcf	28,2	;volatile
  5975     0673                     l203:
  5976     0673  0008               	return
  5977     0674                     __end_of_TMR2_StopTimer:
  5978                           
  5979                           	psect	text28
  5980     0674                     __ptext28:	
  5981 ;; *************** function _TMR2_StartTimer *****************
  5982 ;; Defined at:
  5983 ;;		line 79 in file "mcc_generated_files/tmr2.c"
  5984 ;; Parameters:    Size  Location     Type
  5985 ;;		None
  5986 ;; Auto vars:     Size  Location     Type
  5987 ;;		None
  5988 ;; Return value:  Size  Location     Type
  5989 ;;                  1    wreg      void 
  5990 ;; Registers used:
  5991 ;;		None
  5992 ;; Tracked objects:
  5993 ;;		On entry : 0/0
  5994 ;;		On exit  : 0/0
  5995 ;;		Unchanged: 0/0
  5996 ;; Data sizes:     COMMON   BANK0   BANK1   BANK2   BANK3   BANK4   BANK5   BANK6
  5997 ;;      Params:         0       0       0       0       0       0       0       0
  5998 ;;      Locals:         0       0       0       0       0       0       0       0
  5999 ;;      Temps:          0       0       0       0       0       0       0       0
  6000 ;;      Totals:         0       0       0       0       0       0       0       0
  6001 ;;Total ram usage:        0 bytes
  6002 ;; Hardware stack levels used: 1
  6003 ;; Hardware stack levels required when called: 4
  6004 ;; This function calls:
  6005 ;;		Nothing
  6006 ;; This function is called by:
  6007 ;;		_Clear_No_Call_Warning
  6008 ;; This function uses a non-reentrant model
  6009 ;;
  6010                           
  6011     0674                     _TMR2_StartTimer:	
  6012                           ;psect for function _TMR2_StartTimer
  6013                           
  6014     0674                     l2983:	
  6015                           ;incstack = 0
  6016                           ; Regs used in _TMR2_StartTimer: []
  6017                           
  6018                           
  6019                           ;mcc_generated_files/tmr2.c: 82:     T2CONbits.TMR2ON = 1;
  6020     0674  0020               	movlb	0	; select bank0
  6021     0675  151C               	bsf	28,2	;volatile
  6022     0676                     l200:
  6023     0676  0008               	return
  6024     0677                     __end_of_TMR2_StartTimer:
  6025                           
  6026                           	psect	text29
  6027     0677                     __ptext29:	
  6028 ;; *************** function _TMR2_ReadTimer *****************
  6029 ;; Defined at:
  6030 ;;		line 91 in file "mcc_generated_files/tmr2.c"
  6031 ;; Parameters:    Size  Location     Type
  6032 ;;		None
  6033 ;; Auto vars:     Size  Location     Type
  6034 ;;  readVal         1    0        unsigned char 
  6035 ;; Return value:  Size  Location     Type
  6036 ;;                  1    wreg      unsigned char 
  6037 ;; Registers used:
  6038 ;;		wreg
  6039 ;; Tracked objects:
  6040 ;;		On entry : 0/0
  6041 ;;		On exit  : 0/0
  6042 ;;		Unchanged: 0/0
  6043 ;; Data sizes:     COMMON   BANK0   BANK1   BANK2   BANK3   BANK4   BANK5   BANK6
  6044 ;;      Params:         0       0       0       0       0       0       0       0
  6045 ;;      Locals:         0       0       0       0       0       0       0       0
  6046 ;;      Temps:          0       0       0       0       0       0       0       0
  6047 ;;      Totals:         0       0       0       0       0       0       0       0
  6048 ;;Total ram usage:        0 bytes
  6049 ;; Hardware stack levels used: 1
  6050 ;; Hardware stack levels required when called: 4
  6051 ;; This function calls:
  6052 ;;		Nothing
  6053 ;; This function is called by:
  6054 ;;		_Clear_No_Call_Warning
  6055 ;; This function uses a non-reentrant model
  6056 ;;
  6057                           
  6058     0677                     _TMR2_ReadTimer:	
  6059                           ;psect for function _TMR2_ReadTimer
  6060                           
  6061     0677                     l2987:	
  6062                           ;incstack = 0
  6063                           ; Regs used in _TMR2_ReadTimer: [wreg]
  6064                           
  6065     0677  0020               	movlb	0	; select bank0
  6066     0678  081A               	movf	26,w	;volatile
  6067     0679                     l206:
  6068     0679  0008               	return
  6069     067A                     __end_of_TMR2_ReadTimer:
  6070                           
  6071                           	psect	text30
  6072     0653                     __ptext30:	
  6073 ;; *************** function _TMR2_LoadPeriodRegister *****************
  6074 ;; Defined at:
  6075 ;;		line 106 in file "mcc_generated_files/tmr2.c"
  6076 ;; Parameters:    Size  Location     Type
  6077 ;;  periodVal       1    wreg     unsigned char 
  6078 ;; Auto vars:     Size  Location     Type
  6079 ;;  periodVal       1    0[BANK0 ] unsigned char 
  6080 ;; Return value:  Size  Location     Type
  6081 ;;                  1    wreg      void 
  6082 ;; Registers used:
  6083 ;;		wreg
  6084 ;; Tracked objects:
  6085 ;;		On entry : 0/0
  6086 ;;		On exit  : 0/0
  6087 ;;		Unchanged: 0/0
  6088 ;; Data sizes:     COMMON   BANK0   BANK1   BANK2   BANK3   BANK4   BANK5   BANK6
  6089 ;;      Params:         0       0       0       0       0       0       0       0
  6090 ;;      Locals:         0       1       0       0       0       0       0       0
  6091 ;;      Temps:          0       0       0       0       0       0       0       0
  6092 ;;      Totals:         0       1       0       0       0       0       0       0
  6093 ;;Total ram usage:        1 bytes
  6094 ;; Hardware stack levels used: 1
  6095 ;; Hardware stack levels required when called: 4
  6096 ;; This function calls:
  6097 ;;		Nothing
  6098 ;; This function is called by:
  6099 ;;		_Clear_No_Call_Warning
  6100 ;; This function uses a non-reentrant model
  6101 ;;
  6102                           
  6103     0653                     _TMR2_LoadPeriodRegister:	
  6104                           ;psect for function _TMR2_LoadPeriodRegister
  6105                           
  6106                           
  6107                           ;incstack = 0
  6108                           ; Regs used in _TMR2_LoadPeriodRegister: [wreg]
  6109                           ;TMR2_LoadPeriodRegister@periodVal stored from wreg
  6110     0653  0020               	movlb	0	; select bank0
  6111     0654  00C6               	movwf	TMR2_LoadPeriodRegister@periodVal
  6112     0655                     l2993:
  6113                           
  6114                           ;mcc_generated_files/tmr2.c: 106: void TMR2_LoadPeriodRegister(uint8_t periodVal);mcc_ge
      +                          nerated_files/tmr2.c: 107: {;mcc_generated_files/tmr2.c: 108:    PR2 = periodVal;
  6115     0655  0846               	movf	TMR2_LoadPeriodRegister@periodVal,w
  6116     0656  009B               	movwf	27	;volatile
  6117     0657                     l212:
  6118     0657  0008               	return
  6119     0658                     __end_of_TMR2_LoadPeriodRegister:
  6120                           
  6121                           	psect	text31
  6122     05CB                     __ptext31:	
  6123 ;; *************** function _TMR2_HasOverflowOccured *****************
  6124 ;; Defined at:
  6125 ;;		line 111 in file "mcc_generated_files/tmr2.c"
  6126 ;; Parameters:    Size  Location     Type
  6127 ;;		None
  6128 ;; Auto vars:     Size  Location     Type
  6129 ;;  status          1    0[BANK0 ] _Bool 
  6130 ;; Return value:  Size  Location     Type
  6131 ;;                  1    wreg      _Bool 
  6132 ;; Registers used:
  6133 ;;		wreg, status,2, status,0
  6134 ;; Tracked objects:
  6135 ;;		On entry : 0/0
  6136 ;;		On exit  : 0/0
  6137 ;;		Unchanged: 0/0
  6138 ;; Data sizes:     COMMON   BANK0   BANK1   BANK2   BANK3   BANK4   BANK5   BANK6
  6139 ;;      Params:         0       0       0       0       0       0       0       0
  6140 ;;      Locals:         0       1       0       0       0       0       0       0
  6141 ;;      Temps:          0       0       0       0       0       0       0       0
  6142 ;;      Totals:         0       1       0       0       0       0       0       0
  6143 ;;Total ram usage:        1 bytes
  6144 ;; Hardware stack levels used: 1
  6145 ;; Hardware stack levels required when called: 4
  6146 ;; This function calls:
  6147 ;;		Nothing
  6148 ;; This function is called by:
  6149 ;;		_Clear_No_Call_Warning
  6150 ;; This function uses a non-reentrant model
  6151 ;;
  6152                           
  6153     05CB                     _TMR2_HasOverflowOccured:	
  6154                           ;psect for function _TMR2_HasOverflowOccured
  6155                           
  6156     05CB                     l2995:	
  6157                           ;incstack = 0
  6158                           ; Regs used in _TMR2_HasOverflowOccured: [wreg+status,2+status,0]
  6159                           
  6160                           
  6161                           ;mcc_generated_files/tmr2.c: 114:     _Bool status = PIR1bits.TMR2IF;
  6162     05CB  3000               	movlw	0
  6163     05CC  0020               	movlb	0	; select bank0
  6164     05CD  1891               	btfsc	17,1	;volatile
  6165     05CE  3001               	movlw	1
  6166     05CF  00C6               	movwf	TMR2_HasOverflowOccured@status
  6167     05D0                     l2997:
  6168                           
  6169                           ;mcc_generated_files/tmr2.c: 115:     if(status)
  6170     05D0  0846               	movf	TMR2_HasOverflowOccured@status,w
  6171     05D1  1903               	btfsc	3,2
  6172     05D2  2DD4               	goto	u2751
  6173     05D3  2DD5               	goto	u2750
  6174     05D4                     u2751:
  6175     05D4  2DD6               	goto	l216
  6176     05D5                     u2750:
  6177     05D5                     l2999:
  6178                           
  6179                           ;mcc_generated_files/tmr2.c: 116:     {;mcc_generated_files/tmr2.c: 118:         PIR1bit
      +                          s.TMR2IF = 0;
  6180     05D5  1091               	bcf	17,1	;volatile
  6181     05D6                     l216:
  6182     05D6  0008               	return
  6183     05D7                     __end_of_TMR2_HasOverflowOccured:
  6184                           
  6185                           	psect	text32
  6186     067A                     __ptext32:	
  6187 ;; *************** function _TMR1_StopTimer *****************
  6188 ;; Defined at:
  6189 ;;		line 92 in file "mcc_generated_files/tmr1.c"
  6190 ;; Parameters:    Size  Location     Type
  6191 ;;		None
  6192 ;; Auto vars:     Size  Location     Type
  6193 ;;		None
  6194 ;; Return value:  Size  Location     Type
  6195 ;;                  1    wreg      void 
  6196 ;; Registers used:
  6197 ;;		None
  6198 ;; Tracked objects:
  6199 ;;		On entry : 0/0
  6200 ;;		On exit  : 0/0
  6201 ;;		Unchanged: 0/0
  6202 ;; Data sizes:     COMMON   BANK0   BANK1   BANK2   BANK3   BANK4   BANK5   BANK6
  6203 ;;      Params:         0       0       0       0       0       0       0       0
  6204 ;;      Locals:         0       0       0       0       0       0       0       0
  6205 ;;      Temps:          0       0       0       0       0       0       0       0
  6206 ;;      Totals:         0       0       0       0       0       0       0       0
  6207 ;;Total ram usage:        0 bytes
  6208 ;; Hardware stack levels used: 1
  6209 ;; Hardware stack levels required when called: 4
  6210 ;; This function calls:
  6211 ;;		Nothing
  6212 ;; This function is called by:
  6213 ;;		_Clear_No_Call_Warning
  6214 ;; This function uses a non-reentrant model
  6215 ;;
  6216                           
  6217     067A                     _TMR1_StopTimer:	
  6218                           ;psect for function _TMR1_StopTimer
  6219                           
  6220     067A                     l2955:	
  6221                           ;incstack = 0
  6222                           ; Regs used in _TMR1_StopTimer: []
  6223                           
  6224                           
  6225                           ;mcc_generated_files/tmr1.c: 95:     T1CONbits.TMR1ON = 0;
  6226     067A  0020               	movlb	0	; select bank0
  6227     067B  1018               	bcf	24,0	;volatile
  6228     067C                     l86:
  6229     067C  0008               	return
  6230     067D                     __end_of_TMR1_StopTimer:
  6231                           
  6232                           	psect	text33
  6233     067D                     __ptext33:	
  6234 ;; *************** function _TMR1_StartTimer *****************
  6235 ;; Defined at:
  6236 ;;		line 86 in file "mcc_generated_files/tmr1.c"
  6237 ;; Parameters:    Size  Location     Type
  6238 ;;		None
  6239 ;; Auto vars:     Size  Location     Type
  6240 ;;		None
  6241 ;; Return value:  Size  Location     Type
  6242 ;;                  1    wreg      void 
  6243 ;; Registers used:
  6244 ;;		None
  6245 ;; Tracked objects:
  6246 ;;		On entry : 0/0
  6247 ;;		On exit  : 0/0
  6248 ;;		Unchanged: 0/0
  6249 ;; Data sizes:     COMMON   BANK0   BANK1   BANK2   BANK3   BANK4   BANK5   BANK6
  6250 ;;      Params:         0       0       0       0       0       0       0       0
  6251 ;;      Locals:         0       0       0       0       0       0       0       0
  6252 ;;      Temps:          0       0       0       0       0       0       0       0
  6253 ;;      Totals:         0       0       0       0       0       0       0       0
  6254 ;;Total ram usage:        0 bytes
  6255 ;; Hardware stack levels used: 1
  6256 ;; Hardware stack levels required when called: 4
  6257 ;; This function calls:
  6258 ;;		Nothing
  6259 ;; This function is called by:
  6260 ;;		_Clear_No_Call_Warning
  6261 ;; This function uses a non-reentrant model
  6262 ;;
  6263                           
  6264     067D                     _TMR1_StartTimer:	
  6265                           ;psect for function _TMR1_StartTimer
  6266                           
  6267     067D                     l2953:	
  6268                           ;incstack = 0
  6269                           ; Regs used in _TMR1_StartTimer: []
  6270                           
  6271                           
  6272                           ;mcc_generated_files/tmr1.c: 89:     T1CONbits.TMR1ON = 1;
  6273     067D  0020               	movlb	0	; select bank0
  6274     067E  1418               	bsf	24,0	;volatile
  6275     067F                     l83:
  6276     067F  0008               	return
  6277     0680                     __end_of_TMR1_StartTimer:
  6278                           
  6279                           	psect	text34
  6280     0680                     __ptext34:	
  6281 ;; *************** function _TMR1_StartSinglePulseAcquisition *****************
  6282 ;; Defined at:
  6283 ;;		line 140 in file "mcc_generated_files/tmr1.c"
  6284 ;; Parameters:    Size  Location     Type
  6285 ;;		None
  6286 ;; Auto vars:     Size  Location     Type
  6287 ;;		None
  6288 ;; Return value:  Size  Location     Type
  6289 ;;                  1    wreg      void 
  6290 ;; Registers used:
  6291 ;;		None
  6292 ;; Tracked objects:
  6293 ;;		On entry : 0/0
  6294 ;;		On exit  : 0/0
  6295 ;;		Unchanged: 0/0
  6296 ;; Data sizes:     COMMON   BANK0   BANK1   BANK2   BANK3   BANK4   BANK5   BANK6
  6297 ;;      Params:         0       0       0       0       0       0       0       0
  6298 ;;      Locals:         0       0       0       0       0       0       0       0
  6299 ;;      Temps:          0       0       0       0       0       0       0       0
  6300 ;;      Totals:         0       0       0       0       0       0       0       0
  6301 ;;Total ram usage:        0 bytes
  6302 ;; Hardware stack levels used: 1
  6303 ;; Hardware stack levels required when called: 4
  6304 ;; This function calls:
  6305 ;;		Nothing
  6306 ;; This function is called by:
  6307 ;;		_Clear_No_Call_Warning
  6308 ;; This function uses a non-reentrant model
  6309 ;;
  6310                           
  6311     0680                     _TMR1_StartSinglePulseAcquisition:	
  6312                           ;psect for function _TMR1_StartSinglePulseAcquisition
  6313                           
  6314     0680                     l2963:	
  6315                           ;incstack = 0
  6316                           ; Regs used in _TMR1_StartSinglePulseAcquisition: []
  6317                           
  6318                           
  6319                           ;mcc_generated_files/tmr1.c: 142:     T1GCONbits.T1GGO = 1;
  6320     0680  0020               	movlb	0	; select bank0
  6321     0681  1599               	bsf	25,3	;volatile
  6322     0682                     l100:
  6323     0682  0008               	return
  6324     0683                     __end_of_TMR1_StartSinglePulseAcquisition:
  6325                           
  6326                           	psect	text35
  6327     0612                     __ptext35:	
  6328 ;; *************** function _TMR1_Reload *****************
  6329 ;; Defined at:
  6330 ;;		line 135 in file "mcc_generated_files/tmr1.c"
  6331 ;; Parameters:    Size  Location     Type
  6332 ;;		None
  6333 ;; Auto vars:     Size  Location     Type
  6334 ;;		None
  6335 ;; Return value:  Size  Location     Type
  6336 ;;                  1    wreg      void 
  6337 ;; Registers used:
  6338 ;;		wreg, status,2, status,0, pclath, cstack
  6339 ;; Tracked objects:
  6340 ;;		On entry : 0/0
  6341 ;;		On exit  : 0/0
  6342 ;;		Unchanged: 0/0
  6343 ;; Data sizes:     COMMON   BANK0   BANK1   BANK2   BANK3   BANK4   BANK5   BANK6
  6344 ;;      Params:         0       0       0       0       0       0       0       0
  6345 ;;      Locals:         0       0       0       0       0       0       0       0
  6346 ;;      Temps:          0       0       0       0       0       0       0       0
  6347 ;;      Totals:         0       0       0       0       0       0       0       0
  6348 ;;Total ram usage:        0 bytes
  6349 ;; Hardware stack levels used: 1
  6350 ;; Hardware stack levels required when called: 5
  6351 ;; This function calls:
  6352 ;;		_TMR1_WriteTimer
  6353 ;; This function is called by:
  6354 ;;		_Clear_No_Call_Warning
  6355 ;; This function uses a non-reentrant model
  6356 ;;
  6357                           
  6358     0612                     _TMR1_Reload:	
  6359                           ;psect for function _TMR1_Reload
  6360                           
  6361     0612                     l2961:	
  6362                           ;incstack = 0
  6363                           ; Regs used in _TMR1_Reload: [wreg+status,2+status,0+pclath+cstack]
  6364                           
  6365                           
  6366                           ;mcc_generated_files/tmr1.c: 137:     TMR1_WriteTimer(timer1ReloadVal);
  6367     0612  0020               	movlb	0	; select bank0
  6368     0613  0838               	movf	_timer1ReloadVal+1,w	;volatile
  6369     0614  00C7               	movwf	TMR1_WriteTimer@timerVal+1
  6370     0615  0837               	movf	_timer1ReloadVal,w	;volatile
  6371     0616  00C6               	movwf	TMR1_WriteTimer@timerVal
  6372     0617  3185  2538  3186   	fcall	_TMR1_WriteTimer
  6373     061A                     l97:
  6374     061A  0008               	return
  6375     061B                     __end_of_TMR1_Reload:
  6376                           
  6377                           	psect	text36
  6378     0538                     __ptext36:	
  6379 ;; *************** function _TMR1_WriteTimer *****************
  6380 ;; Defined at:
  6381 ;;		line 113 in file "mcc_generated_files/tmr1.c"
  6382 ;; Parameters:    Size  Location     Type
  6383 ;;  timerVal        2    0[BANK0 ] unsigned short 
  6384 ;; Auto vars:     Size  Location     Type
  6385 ;;		None
  6386 ;; Return value:  Size  Location     Type
  6387 ;;                  1    wreg      void 
  6388 ;; Registers used:
  6389 ;;		wreg, status,2
  6390 ;; Tracked objects:
  6391 ;;		On entry : 0/0
  6392 ;;		On exit  : 0/0
  6393 ;;		Unchanged: 0/0
  6394 ;; Data sizes:     COMMON   BANK0   BANK1   BANK2   BANK3   BANK4   BANK5   BANK6
  6395 ;;      Params:         0       2       0       0       0       0       0       0
  6396 ;;      Locals:         0       0       0       0       0       0       0       0
  6397 ;;      Temps:          0       0       0       0       0       0       0       0
  6398 ;;      Totals:         0       2       0       0       0       0       0       0
  6399 ;;Total ram usage:        2 bytes
  6400 ;; Hardware stack levels used: 1
  6401 ;; Hardware stack levels required when called: 4
  6402 ;; This function calls:
  6403 ;;		Nothing
  6404 ;; This function is called by:
  6405 ;;		_TMR1_Reload
  6406 ;;		_Clear_No_Call_Warning
  6407 ;; This function uses a non-reentrant model
  6408 ;;
  6409                           
  6410     0538                     _TMR1_WriteTimer:	
  6411                           ;psect for function _TMR1_WriteTimer
  6412                           
  6413     0538                     l2921:	
  6414                           ;incstack = 0
  6415                           ; Regs used in _TMR1_WriteTimer: [wreg+status,2]
  6416                           
  6417                           
  6418                           ;mcc_generated_files/tmr1.c: 113: void TMR1_WriteTimer(uint16_t timerVal);mcc_generated_
      +                          files/tmr1.c: 114: {;mcc_generated_files/tmr1.c: 115:     if (T1CONbits.nT1SYNC == 1)
  6419     0538  0020               	movlb	0	; select bank0
  6420     0539  1D18               	btfss	24,2	;volatile
  6421     053A  2D3C               	goto	u2741
  6422     053B  2D3D               	goto	u2740
  6423     053C                     u2741:
  6424     053C  2D44               	goto	l2931
  6425     053D                     u2740:
  6426     053D                     l2923:
  6427                           
  6428                           ;mcc_generated_files/tmr1.c: 116:     {;mcc_generated_files/tmr1.c: 118:         T1CONbi
      +                          ts.TMR1ON = 0;
  6429     053D  1018               	bcf	24,0	;volatile
  6430     053E                     l2925:
  6431                           
  6432                           ;mcc_generated_files/tmr1.c: 121:         TMR1H = (uint8_t)(timerVal >> 8);
  6433     053E  0847               	movf	TMR1_WriteTimer@timerVal+1,w
  6434     053F  0097               	movwf	23	;volatile
  6435     0540                     l2927:
  6436                           
  6437                           ;mcc_generated_files/tmr1.c: 122:         TMR1L = (uint8_t)timerVal;
  6438     0540  0846               	movf	TMR1_WriteTimer@timerVal,w
  6439     0541  0096               	movwf	22	;volatile
  6440     0542                     l2929:
  6441                           
  6442                           ;mcc_generated_files/tmr1.c: 125:         T1CONbits.TMR1ON =1;
  6443     0542  1418               	bsf	24,0	;volatile
  6444                           
  6445                           ;mcc_generated_files/tmr1.c: 126:     }
  6446     0543  2D48               	goto	l94
  6447     0544                     l2931:
  6448                           
  6449                           ;mcc_generated_files/tmr1.c: 128:     {;mcc_generated_files/tmr1.c: 130:         TMR1H =
      +                           (uint8_t)(timerVal >> 8);
  6450     0544  0847               	movf	TMR1_WriteTimer@timerVal+1,w
  6451     0545  0097               	movwf	23	;volatile
  6452     0546                     l2933:
  6453                           
  6454                           ;mcc_generated_files/tmr1.c: 131:         TMR1L = (uint8_t)timerVal;
  6455     0546  0846               	movf	TMR1_WriteTimer@timerVal,w
  6456     0547  0096               	movwf	22	;volatile
  6457     0548                     l94:
  6458     0548  0008               	return
  6459     0549                     __end_of_TMR1_WriteTimer:
  6460                           
  6461                           	psect	text37
  6462     0642                     __ptext37:	
  6463 ;; *************** function _TMR1_ReadTimer *****************
  6464 ;; Defined at:
  6465 ;;		line 98 in file "mcc_generated_files/tmr1.c"
  6466 ;; Parameters:    Size  Location     Type
  6467 ;;		None
  6468 ;; Auto vars:     Size  Location     Type
  6469 ;;  readVal         2    0        unsigned short 
  6470 ;;  readValLow      1    1[BANK0 ] unsigned char 
  6471 ;;  readValHigh     1    0[BANK0 ] unsigned char 
  6472 ;; Return value:  Size  Location     Type
  6473 ;;                  2   88[None  ] unsigned short 
  6474 ;; Registers used:
  6475 ;;		wreg
  6476 ;; Tracked objects:
  6477 ;;		On entry : 0/0
  6478 ;;		On exit  : 0/0
  6479 ;;		Unchanged: 0/0
  6480 ;; Data sizes:     COMMON   BANK0   BANK1   BANK2   BANK3   BANK4   BANK5   BANK6
  6481 ;;      Params:         0       0       0       0       0       0       0       0
  6482 ;;      Locals:         0       2       0       0       0       0       0       0
  6483 ;;      Temps:          0       0       0       0       0       0       0       0
  6484 ;;      Totals:         0       2       0       0       0       0       0       0
  6485 ;;Total ram usage:        2 bytes
  6486 ;; Hardware stack levels used: 1
  6487 ;; Hardware stack levels required when called: 4
  6488 ;; This function calls:
  6489 ;;		Nothing
  6490 ;; This function is called by:
  6491 ;;		_Clear_No_Call_Warning
  6492 ;; This function uses a non-reentrant model
  6493 ;;
  6494                           
  6495     0642                     _TMR1_ReadTimer:	
  6496                           ;psect for function _TMR1_ReadTimer
  6497                           
  6498     0642                     l2957:	
  6499                           ;incstack = 0
  6500                           ; Regs used in _TMR1_ReadTimer: [wreg]
  6501                           
  6502                           
  6503                           ;mcc_generated_files/tmr1.c: 100:     uint16_t readVal;;mcc_generated_files/tmr1.c: 101:
      +                               uint8_t readValHigh;;mcc_generated_files/tmr1.c: 102:     uint8_t readValLow;;mcc_g
      +                          enerated_files/tmr1.c: 105:     readValLow = TMR1L;
  6504     0642  0020               	movlb	0	; select bank0
  6505     0643  0816               	movf	22,w	;volatile
  6506     0644  00C7               	movwf	TMR1_ReadTimer@readValLow
  6507                           
  6508                           ;mcc_generated_files/tmr1.c: 106:     readValHigh = TMR1H;
  6509     0645  0817               	movf	23,w	;volatile
  6510     0646  00C6               	movwf	TMR1_ReadTimer@readValHigh
  6511     0647                     l89:
  6512     0647  0008               	return
  6513     0648                     __end_of_TMR1_ReadTimer:
  6514                           
  6515                           	psect	text38
  6516     0683                     __ptext38:	
  6517 ;; *************** function _TMR1_HasOverflowOccured *****************
  6518 ;; Defined at:
  6519 ;;		line 150 in file "mcc_generated_files/tmr1.c"
  6520 ;; Parameters:    Size  Location     Type
  6521 ;;		None
  6522 ;; Auto vars:     Size  Location     Type
  6523 ;;		None
  6524 ;; Return value:  Size  Location     Type
  6525 ;;                  1    wreg      _Bool 
  6526 ;; Registers used:
  6527 ;;		wreg
  6528 ;; Tracked objects:
  6529 ;;		On entry : 0/0
  6530 ;;		On exit  : 0/0
  6531 ;;		Unchanged: 0/0
  6532 ;; Data sizes:     COMMON   BANK0   BANK1   BANK2   BANK3   BANK4   BANK5   BANK6
  6533 ;;      Params:         0       0       0       0       0       0       0       0
  6534 ;;      Locals:         0       0       0       0       0       0       0       0
  6535 ;;      Temps:          0       0       0       0       0       0       0       0
  6536 ;;      Totals:         0       0       0       0       0       0       0       0
  6537 ;;Total ram usage:        0 bytes
  6538 ;; Hardware stack levels used: 1
  6539 ;; Hardware stack levels required when called: 4
  6540 ;; This function calls:
  6541 ;;		Nothing
  6542 ;; This function is called by:
  6543 ;;		_Clear_No_Call_Warning
  6544 ;; This function uses a non-reentrant model
  6545 ;;
  6546                           
  6547     0683                     _TMR1_HasOverflowOccured:	
  6548                           ;psect for function _TMR1_HasOverflowOccured
  6549                           
  6550     0683                     l2969:	
  6551                           ;incstack = 0
  6552                           ; Regs used in _TMR1_HasOverflowOccured: [wreg]
  6553                           
  6554                           
  6555                           ;mcc_generated_files/tmr1.c: 153:     return(PIR1bits.TMR1IF);;	Return value of _TMR1_Ha
      +                          sOverflowOccured is never used
  6556     0683  0020               	movlb	0	; select bank0
  6557     0684  0811               	movf	17,w	;volatile
  6558     0685                     l106:
  6559     0685  0008               	return
  6560     0686                     __end_of_TMR1_HasOverflowOccured:
  6561                           
  6562                           	psect	text39
  6563     0686                     __ptext39:	
  6564 ;; *************** function _TMR1_CheckGateValueStatus *****************
  6565 ;; Defined at:
  6566 ;;		line 145 in file "mcc_generated_files/tmr1.c"
  6567 ;; Parameters:    Size  Location     Type
  6568 ;;		None
  6569 ;; Auto vars:     Size  Location     Type
  6570 ;;		None
  6571 ;; Return value:  Size  Location     Type
  6572 ;;                  1    wreg      unsigned char 
  6573 ;; Registers used:
  6574 ;;		wreg
  6575 ;; Tracked objects:
  6576 ;;		On entry : 0/0
  6577 ;;		On exit  : 0/0
  6578 ;;		Unchanged: 0/0
  6579 ;; Data sizes:     COMMON   BANK0   BANK1   BANK2   BANK3   BANK4   BANK5   BANK6
  6580 ;;      Params:         0       0       0       0       0       0       0       0
  6581 ;;      Locals:         0       0       0       0       0       0       0       0
  6582 ;;      Temps:          0       0       0       0       0       0       0       0
  6583 ;;      Totals:         0       0       0       0       0       0       0       0
  6584 ;;Total ram usage:        0 bytes
  6585 ;; Hardware stack levels used: 1
  6586 ;; Hardware stack levels required when called: 4
  6587 ;; This function calls:
  6588 ;;		Nothing
  6589 ;; This function is called by:
  6590 ;;		_Clear_No_Call_Warning
  6591 ;; This function uses a non-reentrant model
  6592 ;;
  6593                           
  6594     0686                     _TMR1_CheckGateValueStatus:	
  6595                           ;psect for function _TMR1_CheckGateValueStatus
  6596                           
  6597     0686                     l2965:	
  6598                           ;incstack = 0
  6599                           ; Regs used in _TMR1_CheckGateValueStatus: [wreg]
  6600                           
  6601                           
  6602                           ;mcc_generated_files/tmr1.c: 147:     return (T1GCONbits.T1GVAL);;	Return value of _TMR1
      +                          _CheckGateValueStatus is never used
  6603     0686  0020               	movlb	0	; select bank0
  6604     0687  0819               	movf	25,w	;volatile
  6605     0688                     l103:
  6606     0688  0008               	return
  6607     0689                     __end_of_TMR1_CheckGateValueStatus:
  6608                           
  6609                           	psect	text40
  6610     0658                     __ptext40:	
  6611 ;; *************** function _TMR0_WriteTimer *****************
  6612 ;; Defined at:
  6613 ;;		line 96 in file "mcc_generated_files/tmr0.c"
  6614 ;; Parameters:    Size  Location     Type
  6615 ;;  timerVal        1    wreg     unsigned char 
  6616 ;; Auto vars:     Size  Location     Type
  6617 ;;  timerVal        1    0[BANK0 ] unsigned char 
  6618 ;; Return value:  Size  Location     Type
  6619 ;;                  1    wreg      void 
  6620 ;; Registers used:
  6621 ;;		wreg
  6622 ;; Tracked objects:
  6623 ;;		On entry : 0/0
  6624 ;;		On exit  : 0/0
  6625 ;;		Unchanged: 0/0
  6626 ;; Data sizes:     COMMON   BANK0   BANK1   BANK2   BANK3   BANK4   BANK5   BANK6
  6627 ;;      Params:         0       0       0       0       0       0       0       0
  6628 ;;      Locals:         0       1       0       0       0       0       0       0
  6629 ;;      Temps:          0       0       0       0       0       0       0       0
  6630 ;;      Totals:         0       1       0       0       0       0       0       0
  6631 ;;Total ram usage:        1 bytes
  6632 ;; Hardware stack levels used: 1
  6633 ;; Hardware stack levels required when called: 4
  6634 ;; This function calls:
  6635 ;;		Nothing
  6636 ;; This function is called by:
  6637 ;;		_Clear_No_Call_Warning
  6638 ;; This function uses a non-reentrant model
  6639 ;;
  6640                           
  6641     0658                     _TMR0_WriteTimer:	
  6642                           ;psect for function _TMR0_WriteTimer
  6643                           
  6644                           
  6645                           ;incstack = 0
  6646                           ; Regs used in _TMR0_WriteTimer: [wreg]
  6647                           ;TMR0_WriteTimer@timerVal stored from wreg
  6648     0658  0020               	movlb	0	; select bank0
  6649     0659  00C6               	movwf	TMR0_WriteTimer@timerVal
  6650     065A                     l2979:
  6651                           
  6652                           ;mcc_generated_files/tmr0.c: 96: void TMR0_WriteTimer(uint8_t timerVal);mcc_generated_fi
      +                          les/tmr0.c: 97: {;mcc_generated_files/tmr0.c: 99:     TMR0 = timerVal;
  6653     065A  0846               	movf	TMR0_WriteTimer@timerVal,w
  6654     065B  0095               	movwf	21	;volatile
  6655     065C                     l165:
  6656     065C  0008               	return
  6657     065D                     __end_of_TMR0_WriteTimer:
  6658                           
  6659                           	psect	text41
  6660     065D                     __ptext41:	
  6661 ;; *************** function _TMR0_Reload *****************
  6662 ;; Defined at:
  6663 ;;		line 102 in file "mcc_generated_files/tmr0.c"
  6664 ;; Parameters:    Size  Location     Type
  6665 ;;		None
  6666 ;; Auto vars:     Size  Location     Type
  6667 ;;		None
  6668 ;; Return value:  Size  Location     Type
  6669 ;;                  1    wreg      void 
  6670 ;; Registers used:
  6671 ;;		wreg
  6672 ;; Tracked objects:
  6673 ;;		On entry : 0/0
  6674 ;;		On exit  : 0/0
  6675 ;;		Unchanged: 0/0
  6676 ;; Data sizes:     COMMON   BANK0   BANK1   BANK2   BANK3   BANK4   BANK5   BANK6
  6677 ;;      Params:         0       0       0       0       0       0       0       0
  6678 ;;      Locals:         0       0       0       0       0       0       0       0
  6679 ;;      Temps:          0       0       0       0       0       0       0       0
  6680 ;;      Totals:         0       0       0       0       0       0       0       0
  6681 ;;Total ram usage:        0 bytes
  6682 ;; Hardware stack levels used: 1
  6683 ;; Hardware stack levels required when called: 4
  6684 ;; This function calls:
  6685 ;;		Nothing
  6686 ;; This function is called by:
  6687 ;;		_Clear_No_Call_Warning
  6688 ;; This function uses a non-reentrant model
  6689 ;;
  6690                           
  6691     065D                     _TMR0_Reload:	
  6692                           ;psect for function _TMR0_Reload
  6693                           
  6694     065D                     l2981:	
  6695                           ;incstack = 0
  6696                           ; Regs used in _TMR0_Reload: [wreg]
  6697                           
  6698                           
  6699                           ;mcc_generated_files/tmr0.c: 105:     TMR0 = timer0ReloadVal;
  6700     065D  0875               	movf	_timer0ReloadVal,w	;volatile
  6701     065E  0020               	movlb	0	; select bank0
  6702     065F  0095               	movwf	21	;volatile
  6703     0660                     l168:
  6704     0660  0008               	return
  6705     0661                     __end_of_TMR0_Reload:
  6706                           
  6707                           	psect	text42
  6708     0689                     __ptext42:	
  6709 ;; *************** function _TMR0_ReadTimer *****************
  6710 ;; Defined at:
  6711 ;;		line 87 in file "mcc_generated_files/tmr0.c"
  6712 ;; Parameters:    Size  Location     Type
  6713 ;;		None
  6714 ;; Auto vars:     Size  Location     Type
  6715 ;;  readVal         1    0        unsigned char 
  6716 ;; Return value:  Size  Location     Type
  6717 ;;                  1    wreg      unsigned char 
  6718 ;; Registers used:
  6719 ;;		wreg
  6720 ;; Tracked objects:
  6721 ;;		On entry : 0/0
  6722 ;;		On exit  : 0/0
  6723 ;;		Unchanged: 0/0
  6724 ;; Data sizes:     COMMON   BANK0   BANK1   BANK2   BANK3   BANK4   BANK5   BANK6
  6725 ;;      Params:         0       0       0       0       0       0       0       0
  6726 ;;      Locals:         0       0       0       0       0       0       0       0
  6727 ;;      Temps:          0       0       0       0       0       0       0       0
  6728 ;;      Totals:         0       0       0       0       0       0       0       0
  6729 ;;Total ram usage:        0 bytes
  6730 ;; Hardware stack levels used: 1
  6731 ;; Hardware stack levels required when called: 4
  6732 ;; This function calls:
  6733 ;;		Nothing
  6734 ;; This function is called by:
  6735 ;;		_Clear_No_Call_Warning
  6736 ;; This function uses a non-reentrant model
  6737 ;;
  6738                           
  6739     0689                     _TMR0_ReadTimer:	
  6740                           ;psect for function _TMR0_ReadTimer
  6741                           
  6742     0689                     l2975:	
  6743                           ;incstack = 0
  6744                           ; Regs used in _TMR0_ReadTimer: [wreg]
  6745                           
  6746     0689  0020               	movlb	0	; select bank0
  6747     068A  0815               	movf	21,w	;volatile
  6748     068B                     l162:
  6749     068B  0008               	return
  6750     068C                     __end_of_TMR0_ReadTimer:
  6751                           
  6752                           	psect	text43
  6753     0696                     __ptext43:	
  6754 ;; *************** function _PIN_MANAGER_IOC *****************
  6755 ;; Defined at:
  6756 ;;		line 99 in file "mcc_generated_files/pin_manager.c"
  6757 ;; Parameters:    Size  Location     Type
  6758 ;;		None
  6759 ;; Auto vars:     Size  Location     Type
  6760 ;;		None
  6761 ;; Return value:  Size  Location     Type
  6762 ;;                  1    wreg      void 
  6763 ;; Registers used:
  6764 ;;		None
  6765 ;; Tracked objects:
  6766 ;;		On entry : 0/0
  6767 ;;		On exit  : 0/0
  6768 ;;		Unchanged: 0/0
  6769 ;; Data sizes:     COMMON   BANK0   BANK1   BANK2   BANK3   BANK4   BANK5   BANK6
  6770 ;;      Params:         0       0       0       0       0       0       0       0
  6771 ;;      Locals:         0       0       0       0       0       0       0       0
  6772 ;;      Temps:          0       0       0       0       0       0       0       0
  6773 ;;      Totals:         0       0       0       0       0       0       0       0
  6774 ;;Total ram usage:        0 bytes
  6775 ;; Hardware stack levels used: 1
  6776 ;; Hardware stack levels required when called: 4
  6777 ;; This function calls:
  6778 ;;		Nothing
  6779 ;; This function is called by:
  6780 ;;		_Clear_No_Call_Warning
  6781 ;; This function uses a non-reentrant model
  6782 ;;
  6783                           
  6784     0696                     _PIN_MANAGER_IOC:	
  6785                           ;psect for function _PIN_MANAGER_IOC
  6786                           
  6787     0696                     l140:	
  6788                           ;incstack = 0
  6789                           ; Regs used in _PIN_MANAGER_IOC: []
  6790                           
  6791     0696  0008               	return
  6792     0697                     __end_of_PIN_MANAGER_IOC:
  6793                           
  6794                           	psect	text44
  6795     049E                     __ptext44:	
  6796 ;; *************** function _SYSTEM_Initialize *****************
  6797 ;; Defined at:
  6798 ;;		line 50 in file "mcc_generated_files/mcc.c"
  6799 ;; Parameters:    Size  Location     Type
  6800 ;;		None
  6801 ;; Auto vars:     Size  Location     Type
  6802 ;;		None
  6803 ;; Return value:  Size  Location     Type
  6804 ;;                  1    wreg      void 
  6805 ;; Registers used:
  6806 ;;		wreg, status,2, status,0, pclath, cstack
  6807 ;; Tracked objects:
  6808 ;;		On entry : 0/0
  6809 ;;		On exit  : 0/0
  6810 ;;		Unchanged: 0/0
  6811 ;; Data sizes:     COMMON   BANK0   BANK1   BANK2   BANK3   BANK4   BANK5   BANK6
  6812 ;;      Params:         0       0       0       0       0       0       0       0
  6813 ;;      Locals:         0       0       0       0       0       0       0       0
  6814 ;;      Temps:          0       0       0       0       0       0       0       0
  6815 ;;      Totals:         0       0       0       0       0       0       0       0
  6816 ;;Total ram usage:        0 bytes
  6817 ;; Hardware stack levels used: 1
  6818 ;; Hardware stack levels required when called: 6
  6819 ;; This function calls:
  6820 ;;		_ECCP3_Initialize
  6821 ;;		_EPWM1_Initialize
  6822 ;;		_OSCILLATOR_Initialize
  6823 ;;		_PIN_MANAGER_Initialize
  6824 ;;		_PWM4_Initialize
  6825 ;;		_TMR0_Initialize
  6826 ;;		_TMR1_Initialize
  6827 ;;		_TMR2_Initialize
  6828 ;;		_WDT_Initialize
  6829 ;; This function is called by:
  6830 ;;		_main
  6831 ;; This function uses a non-reentrant model
  6832 ;;
  6833                           
  6834     049E                     _SYSTEM_Initialize:	
  6835                           ;psect for function _SYSTEM_Initialize
  6836                           
  6837     049E                     l3607:	
  6838                           ;incstack = 0
  6839                           ; Regs used in _SYSTEM_Initialize: [wreg+status,2+status,0+pclath+cstack]
  6840                           
  6841                           
  6842                           ;mcc_generated_files/mcc.c: 53:     PIN_MANAGER_Initialize();
  6843     049E  3184  2447  3184   	fcall	_PIN_MANAGER_Initialize
  6844                           
  6845                           ;mcc_generated_files/mcc.c: 54:     OSCILLATOR_Initialize();
  6846     04A1  3185  25D7  3184   	fcall	_OSCILLATOR_Initialize
  6847                           
  6848                           ;mcc_generated_files/mcc.c: 55:     WDT_Initialize();
  6849     04A4  3186  2661  3184   	fcall	_WDT_Initialize
  6850                           
  6851                           ;mcc_generated_files/mcc.c: 56:     EPWM1_Initialize();
  6852     04A7  3185  25B1  3184   	fcall	_EPWM1_Initialize
  6853                           
  6854                           ;mcc_generated_files/mcc.c: 57:     PWM4_Initialize();
  6855     04AA  3186  261B  3184   	fcall	_PWM4_Initialize
  6856                           
  6857                           ;mcc_generated_files/mcc.c: 58:     TMR2_Initialize();
  6858     04AD  3186  2634  3184   	fcall	_TMR2_Initialize
  6859                           
  6860                           ;mcc_generated_files/mcc.c: 59:     ECCP3_Initialize();
  6861     04B0  3185  25ED  3184   	fcall	_ECCP3_Initialize
  6862                           
  6863                           ;mcc_generated_files/mcc.c: 60:     TMR1_Initialize();
  6864     04B3  3185  25A4  3184   	fcall	_TMR1_Initialize
  6865                           
  6866                           ;mcc_generated_files/mcc.c: 61:     TMR0_Initialize();
  6867     04B6  3185  2502  3184   	fcall	_TMR0_Initialize
  6868     04B9                     l31:
  6869     04B9  0008               	return
  6870     04BA                     __end_of_SYSTEM_Initialize:
  6871                           
  6872                           	psect	text45
  6873     0661                     __ptext45:	
  6874 ;; *************** function _WDT_Initialize *****************
  6875 ;; Defined at:
  6876 ;;		line 78 in file "mcc_generated_files/mcc.c"
  6877 ;; Parameters:    Size  Location     Type
  6878 ;;		None
  6879 ;; Auto vars:     Size  Location     Type
  6880 ;;		None
  6881 ;; Return value:  Size  Location     Type
  6882 ;;                  1    wreg      void 
  6883 ;; Registers used:
  6884 ;;		wreg
  6885 ;; Tracked objects:
  6886 ;;		On entry : 0/0
  6887 ;;		On exit  : 0/0
  6888 ;;		Unchanged: 0/0
  6889 ;; Data sizes:     COMMON   BANK0   BANK1   BANK2   BANK3   BANK4   BANK5   BANK6
  6890 ;;      Params:         0       0       0       0       0       0       0       0
  6891 ;;      Locals:         0       0       0       0       0       0       0       0
  6892 ;;      Temps:          0       0       0       0       0       0       0       0
  6893 ;;      Totals:         0       0       0       0       0       0       0       0
  6894 ;;Total ram usage:        0 bytes
  6895 ;; Hardware stack levels used: 1
  6896 ;; Hardware stack levels required when called: 4
  6897 ;; This function calls:
  6898 ;;		Nothing
  6899 ;; This function is called by:
  6900 ;;		_SYSTEM_Initialize
  6901 ;; This function uses a non-reentrant model
  6902 ;;
  6903                           
  6904     0661                     _WDT_Initialize:	
  6905                           ;psect for function _WDT_Initialize
  6906                           
  6907     0661                     l3343:	
  6908                           ;incstack = 0
  6909                           ; Regs used in _WDT_Initialize: [wreg]
  6910                           
  6911                           
  6912                           ;mcc_generated_files/mcc.c: 81:     WDTCON = 0x16;
  6913     0661  3016               	movlw	22
  6914     0662  0021               	movlb	1	; select bank1
  6915     0663  0097               	movwf	23	;volatile
  6916     0664                     l40:
  6917     0664  0008               	return
  6918     0665                     __end_of_WDT_Initialize:
  6919                           
  6920                           	psect	text46
  6921     0634                     __ptext46:	
  6922 ;; *************** function _TMR2_Initialize *****************
  6923 ;; Defined at:
  6924 ;;		line 62 in file "mcc_generated_files/tmr2.c"
  6925 ;; Parameters:    Size  Location     Type
  6926 ;;		None
  6927 ;; Auto vars:     Size  Location     Type
  6928 ;;		None
  6929 ;; Return value:  Size  Location     Type
  6930 ;;                  1    wreg      void 
  6931 ;; Registers used:
  6932 ;;		wreg, status,2
  6933 ;; Tracked objects:
  6934 ;;		On entry : 0/0
  6935 ;;		On exit  : 0/0
  6936 ;;		Unchanged: 0/0
  6937 ;; Data sizes:     COMMON   BANK0   BANK1   BANK2   BANK3   BANK4   BANK5   BANK6
  6938 ;;      Params:         0       0       0       0       0       0       0       0
  6939 ;;      Locals:         0       0       0       0       0       0       0       0
  6940 ;;      Temps:          0       0       0       0       0       0       0       0
  6941 ;;      Totals:         0       0       0       0       0       0       0       0
  6942 ;;Total ram usage:        0 bytes
  6943 ;; Hardware stack levels used: 1
  6944 ;; Hardware stack levels required when called: 4
  6945 ;; This function calls:
  6946 ;;		Nothing
  6947 ;; This function is called by:
  6948 ;;		_SYSTEM_Initialize
  6949 ;; This function uses a non-reentrant model
  6950 ;;
  6951                           
  6952     0634                     _TMR2_Initialize:	
  6953                           ;psect for function _TMR2_Initialize
  6954                           
  6955     0634                     l3367:	
  6956                           ;incstack = 0
  6957                           ; Regs used in _TMR2_Initialize: [wreg+status,2]
  6958                           
  6959                           
  6960                           ;mcc_generated_files/tmr2.c: 67:     PR2 = 0xC8;
  6961     0634  30C8               	movlw	200
  6962     0635  0020               	movlb	0	; select bank0
  6963     0636  009B               	movwf	27	;volatile
  6964     0637                     l3369:
  6965                           
  6966                           ;mcc_generated_files/tmr2.c: 70:     TMR2 = 0x00;
  6967     0637  019A               	clrf	26	;volatile
  6968     0638                     l3371:
  6969                           
  6970                           ;mcc_generated_files/tmr2.c: 73:     PIR1bits.TMR2IF = 0;
  6971     0638  1091               	bcf	17,1	;volatile
  6972     0639                     l3373:
  6973                           
  6974                           ;mcc_generated_files/tmr2.c: 76:     T2CON = 0x07;
  6975     0639  3007               	movlw	7
  6976     063A  009C               	movwf	28	;volatile
  6977     063B                     l197:
  6978     063B  0008               	return
  6979     063C                     __end_of_TMR2_Initialize:
  6980                           
  6981                           	psect	text47
  6982     05A4                     __ptext47:	
  6983 ;; *************** function _TMR1_Initialize *****************
  6984 ;; Defined at:
  6985 ;;		line 63 in file "mcc_generated_files/tmr1.c"
  6986 ;; Parameters:    Size  Location     Type
  6987 ;;		None
  6988 ;; Auto vars:     Size  Location     Type
  6989 ;;		None
  6990 ;; Return value:  Size  Location     Type
  6991 ;;                  1    wreg      void 
  6992 ;; Registers used:
  6993 ;;		wreg, status,2
  6994 ;; Tracked objects:
  6995 ;;		On entry : 0/0
  6996 ;;		On exit  : 0/0
  6997 ;;		Unchanged: 0/0
  6998 ;; Data sizes:     COMMON   BANK0   BANK1   BANK2   BANK3   BANK4   BANK5   BANK6
  6999 ;;      Params:         0       0       0       0       0       0       0       0
  7000 ;;      Locals:         0       0       0       0       0       0       0       0
  7001 ;;      Temps:          0       0       0       0       0       0       0       0
  7002 ;;      Totals:         0       0       0       0       0       0       0       0
  7003 ;;Total ram usage:        0 bytes
  7004 ;; Hardware stack levels used: 1
  7005 ;; Hardware stack levels required when called: 4
  7006 ;; This function calls:
  7007 ;;		Nothing
  7008 ;; This function is called by:
  7009 ;;		_SYSTEM_Initialize
  7010 ;; This function uses a non-reentrant model
  7011 ;;
  7012                           
  7013     05A4                     _TMR1_Initialize:	
  7014                           ;psect for function _TMR1_Initialize
  7015                           
  7016     05A4                     l3385:	
  7017                           ;incstack = 0
  7018                           ; Regs used in _TMR1_Initialize: [wreg+status,2]
  7019                           
  7020                           
  7021                           ;mcc_generated_files/tmr1.c: 68:     T1GCON = 0x10;
  7022     05A4  3010               	movlw	16
  7023     05A5  0020               	movlb	0	; select bank0
  7024     05A6  0099               	movwf	25	;volatile
  7025     05A7                     l3387:
  7026                           
  7027                           ;mcc_generated_files/tmr1.c: 71:     TMR1H = 0x00;
  7028     05A7  0197               	clrf	23	;volatile
  7029     05A8                     l3389:
  7030                           
  7031                           ;mcc_generated_files/tmr1.c: 74:     TMR1L = 0x00;
  7032     05A8  0196               	clrf	22	;volatile
  7033     05A9                     l3391:
  7034                           
  7035                           ;mcc_generated_files/tmr1.c: 77:     PIR1bits.TMR1IF = 0;
  7036     05A9  1011               	bcf	17,0	;volatile
  7037                           
  7038                           ;mcc_generated_files/tmr1.c: 80:     timer1ReloadVal=(uint16_t)((TMR1H << 8) | TMR1L);
  7039     05AA  0817               	movf	23,w	;volatile
  7040     05AB  00B8               	movwf	_timer1ReloadVal+1	;volatile
  7041     05AC  0816               	movf	22,w	;volatile
  7042     05AD  00B7               	movwf	_timer1ReloadVal	;volatile
  7043                           
  7044                           ;mcc_generated_files/tmr1.c: 83:     T1CON = 0x01;
  7045     05AE  3001               	movlw	1
  7046     05AF  0098               	movwf	24	;volatile
  7047     05B0                     l80:
  7048     05B0  0008               	return
  7049     05B1                     __end_of_TMR1_Initialize:
  7050                           
  7051                           	psect	text48
  7052     0502                     __ptext48:	
  7053 ;; *************** function _TMR0_Initialize *****************
  7054 ;; Defined at:
  7055 ;;		line 64 in file "mcc_generated_files/tmr0.c"
  7056 ;; Parameters:    Size  Location     Type
  7057 ;;		None
  7058 ;; Auto vars:     Size  Location     Type
  7059 ;;		None
  7060 ;; Return value:  Size  Location     Type
  7061 ;;                  1    wreg      void 
  7062 ;; Registers used:
  7063 ;;		wreg, status,2, status,0, pclath, cstack
  7064 ;; Tracked objects:
  7065 ;;		On entry : 0/0
  7066 ;;		On exit  : 0/0
  7067 ;;		Unchanged: 0/0
  7068 ;; Data sizes:     COMMON   BANK0   BANK1   BANK2   BANK3   BANK4   BANK5   BANK6
  7069 ;;      Params:         0       0       0       0       0       0       0       0
  7070 ;;      Locals:         0       0       0       0       0       0       0       0
  7071 ;;      Temps:          0       0       0       0       0       0       0       0
  7072 ;;      Totals:         0       0       0       0       0       0       0       0
  7073 ;;Total ram usage:        0 bytes
  7074 ;; Hardware stack levels used: 1
  7075 ;; Hardware stack levels required when called: 5
  7076 ;; This function calls:
  7077 ;;		_TMR0_SetInterruptHandler
  7078 ;; This function is called by:
  7079 ;;		_SYSTEM_Initialize
  7080 ;; This function uses a non-reentrant model
  7081 ;;
  7082                           
  7083     0502                     _TMR0_Initialize:	
  7084                           ;psect for function _TMR0_Initialize
  7085                           
  7086     0502                     l3393:	
  7087                           ;incstack = 0
  7088                           ; Regs used in _TMR0_Initialize: [wreg+status,2+status,0+pclath+cstack]
  7089                           
  7090                           
  7091                           ;mcc_generated_files/tmr0.c: 69:     OPTION_REG = (uint8_t)((OPTION_REG & 0xC0) | (0xD4 
      +                          & 0x3F));
  7092     0502  0021               	movlb	1	; select bank1
  7093     0503  0815               	movf	21,w	;volatile
  7094     0504  39C0               	andlw	192
  7095     0505  3814               	iorlw	20
  7096     0506  0095               	movwf	21	;volatile
  7097     0507                     l3395:
  7098                           
  7099                           ;mcc_generated_files/tmr0.c: 72:     TMR0 = 0x06;
  7100     0507  3006               	movlw	6
  7101     0508  0020               	movlb	0	; select bank0
  7102     0509  0095               	movwf	21	;volatile
  7103     050A                     l3397:
  7104                           
  7105                           ;mcc_generated_files/tmr0.c: 75:     timer0ReloadVal= 6;
  7106     050A  3006               	movlw	6
  7107     050B  00F5               	movwf	_timer0ReloadVal	;volatile
  7108     050C                     l3399:
  7109                           
  7110                           ;mcc_generated_files/tmr0.c: 78:     INTCONbits.TMR0IF = 0;
  7111     050C  110B               	bcf	11,2	;volatile
  7112     050D                     l3401:
  7113                           
  7114                           ;mcc_generated_files/tmr0.c: 81:     INTCONbits.TMR0IE = 1;
  7115     050D  168B               	bsf	11,5	;volatile
  7116     050E                     l3403:
  7117                           
  7118                           ;mcc_generated_files/tmr0.c: 84:     TMR0_SetInterruptHandler(TMR0_DefaultInterruptHandl
      +                          er);
  7119     050E  3097               	movlw	low _TMR0_DefaultInterruptHandler
  7120     050F  00C6               	movwf	TMR0_SetInterruptHandler@InterruptHandler
  7121     0510  3006               	movlw	high _TMR0_DefaultInterruptHandler
  7122     0511  00C7               	movwf	TMR0_SetInterruptHandler@InterruptHandler+1
  7123     0512  3186  2648  3185   	fcall	_TMR0_SetInterruptHandler
  7124     0515                     l159:
  7125     0515  0008               	return
  7126     0516                     __end_of_TMR0_Initialize:
  7127                           
  7128                           	psect	text49
  7129     0648                     __ptext49:	
  7130 ;; *************** function _TMR0_SetInterruptHandler *****************
  7131 ;; Defined at:
  7132 ;;		line 140 in file "mcc_generated_files/tmr0.c"
  7133 ;; Parameters:    Size  Location     Type
  7134 ;;  InterruptHan    2    0[BANK0 ] PTR FTN()void 
  7135 ;;		 -> TMR0_10MS_Even(1), TMR0_DefaultInterruptHandler(1), 
  7136 ;; Auto vars:     Size  Location     Type
  7137 ;;		None
  7138 ;; Return value:  Size  Location     Type
  7139 ;;                  1    wreg      void 
  7140 ;; Registers used:
  7141 ;;		wreg
  7142 ;; Tracked objects:
  7143 ;;		On entry : 0/0
  7144 ;;		On exit  : 0/0
  7145 ;;		Unchanged: 0/0
  7146 ;; Data sizes:     COMMON   BANK0   BANK1   BANK2   BANK3   BANK4   BANK5   BANK6
  7147 ;;      Params:         0       2       0       0       0       0       0       0
  7148 ;;      Locals:         0       0       0       0       0       0       0       0
  7149 ;;      Temps:          0       0       0       0       0       0       0       0
  7150 ;;      Totals:         0       2       0       0       0       0       0       0
  7151 ;;Total ram usage:        2 bytes
  7152 ;; Hardware stack levels used: 1
  7153 ;; Hardware stack levels required when called: 4
  7154 ;; This function calls:
  7155 ;;		Nothing
  7156 ;; This function is called by:
  7157 ;;		_TMR0_Initialize
  7158 ;;		_main
  7159 ;; This function uses a non-reentrant model
  7160 ;;
  7161                           
  7162     0648                     _TMR0_SetInterruptHandler:	
  7163                           ;psect for function _TMR0_SetInterruptHandler
  7164                           
  7165     0648                     l2973:	
  7166                           ;incstack = 0
  7167                           ; Regs used in _TMR0_SetInterruptHandler: [wreg]
  7168                           
  7169                           
  7170                           ;mcc_generated_files/tmr0.c: 141:     TMR0_InterruptHandler = InterruptHandler;
  7171     0648  0020               	movlb	0	; select bank0
  7172     0649  0847               	movf	TMR0_SetInterruptHandler@InterruptHandler+1,w
  7173     064A  00B6               	movwf	_TMR0_InterruptHandler+1
  7174     064B  0846               	movf	TMR0_SetInterruptHandler@InterruptHandler,w
  7175     064C  00B5               	movwf	_TMR0_InterruptHandler
  7176     064D                     l181:
  7177     064D  0008               	return
  7178     064E                     __end_of_TMR0_SetInterruptHandler:
  7179                           
  7180                           	psect	text50
  7181     061B                     __ptext50:	
  7182 ;; *************** function _PWM4_Initialize *****************
  7183 ;; Defined at:
  7184 ;;		line 64 in file "mcc_generated_files/pwm4.c"
  7185 ;; Parameters:    Size  Location     Type
  7186 ;;		None
  7187 ;; Auto vars:     Size  Location     Type
  7188 ;;		None
  7189 ;; Return value:  Size  Location     Type
  7190 ;;                  1    wreg      void 
  7191 ;; Registers used:
  7192 ;;		wreg, status,2, status,0
  7193 ;; Tracked objects:
  7194 ;;		On entry : 0/0
  7195 ;;		On exit  : 0/0
  7196 ;;		Unchanged: 0/0
  7197 ;; Data sizes:     COMMON   BANK0   BANK1   BANK2   BANK3   BANK4   BANK5   BANK6
  7198 ;;      Params:         0       0       0       0       0       0       0       0
  7199 ;;      Locals:         0       0       0       0       0       0       0       0
  7200 ;;      Temps:          0       0       0       0       0       0       0       0
  7201 ;;      Totals:         0       0       0       0       0       0       0       0
  7202 ;;Total ram usage:        0 bytes
  7203 ;; Hardware stack levels used: 1
  7204 ;; Hardware stack levels required when called: 4
  7205 ;; This function calls:
  7206 ;;		Nothing
  7207 ;; This function is called by:
  7208 ;;		_SYSTEM_Initialize
  7209 ;; This function uses a non-reentrant model
  7210 ;;
  7211                           
  7212     061B                     _PWM4_Initialize:	
  7213                           ;psect for function _PWM4_Initialize
  7214                           
  7215     061B                     l3359:	
  7216                           ;incstack = 0
  7217                           ; Regs used in _PWM4_Initialize: [wreg+status,2+status,0]
  7218                           
  7219                           
  7220                           ;mcc_generated_files/pwm4.c: 69:  CCP4CON = 0x0C;
  7221     061B  300C               	movlw	12
  7222     061C  0026               	movlb	6	; select bank6
  7223     061D  009A               	movwf	26	;volatile
  7224     061E                     l3361:
  7225                           
  7226                           ;mcc_generated_files/pwm4.c: 72:  CCPR4L = 0x00;
  7227     061E  0198               	clrf	24	;volatile
  7228     061F                     l3363:
  7229                           
  7230                           ;mcc_generated_files/pwm4.c: 75:  CCPR4H = 0x00;
  7231     061F  0199               	clrf	25	;volatile
  7232     0620                     l3365:
  7233                           
  7234                           ;mcc_generated_files/pwm4.c: 78:  CCPTMRS0bits.C4TSEL = 0x0;
  7235     0620  303F               	movlw	-193
  7236     0621  0025               	movlb	5	; select bank5
  7237     0622  059E               	andwf	30,f	;volatile
  7238     0623                     l265:
  7239     0623  0008               	return
  7240     0624                     __end_of_PWM4_Initialize:
  7241                           
  7242                           	psect	text51
  7243     0447                     __ptext51:	
  7244 ;; *************** function _PIN_MANAGER_Initialize *****************
  7245 ;; Defined at:
  7246 ;;		line 55 in file "mcc_generated_files/pin_manager.c"
  7247 ;; Parameters:    Size  Location     Type
  7248 ;;		None
  7249 ;; Auto vars:     Size  Location     Type
  7250 ;;		None
  7251 ;; Return value:  Size  Location     Type
  7252 ;;                  1    wreg      void 
  7253 ;; Registers used:
  7254 ;;		wreg, status,2
  7255 ;; Tracked objects:
  7256 ;;		On entry : 0/0
  7257 ;;		On exit  : 0/0
  7258 ;;		Unchanged: 0/0
  7259 ;; Data sizes:     COMMON   BANK0   BANK1   BANK2   BANK3   BANK4   BANK5   BANK6
  7260 ;;      Params:         0       0       0       0       0       0       0       0
  7261 ;;      Locals:         0       0       0       0       0       0       0       0
  7262 ;;      Temps:          0       0       0       0       0       0       0       0
  7263 ;;      Totals:         0       0       0       0       0       0       0       0
  7264 ;;Total ram usage:        0 bytes
  7265 ;; Hardware stack levels used: 1
  7266 ;; Hardware stack levels required when called: 4
  7267 ;; This function calls:
  7268 ;;		Nothing
  7269 ;; This function is called by:
  7270 ;;		_SYSTEM_Initialize
  7271 ;; This function uses a non-reentrant model
  7272 ;;
  7273                           
  7274     0447                     _PIN_MANAGER_Initialize:	
  7275                           ;psect for function _PIN_MANAGER_Initialize
  7276                           
  7277     0447                     l3311:	
  7278                           ;incstack = 0
  7279                           ; Regs used in _PIN_MANAGER_Initialize: [wreg+status,2]
  7280                           
  7281                           
  7282                           ;mcc_generated_files/pin_manager.c: 60:     LATE = 0x00;
  7283     0447  0022               	movlb	2	; select bank2
  7284     0448  0190               	clrf	16	;volatile
  7285     0449                     l3313:
  7286                           
  7287                           ;mcc_generated_files/pin_manager.c: 61:     LATA = 0x01;
  7288     0449  3001               	movlw	1
  7289     044A  008C               	movwf	12	;volatile
  7290     044B                     l3315:
  7291                           
  7292                           ;mcc_generated_files/pin_manager.c: 62:     LATB = 0x20;
  7293     044B  3020               	movlw	32
  7294     044C  008D               	movwf	13	;volatile
  7295     044D                     l3317:
  7296                           
  7297                           ;mcc_generated_files/pin_manager.c: 63:     LATC = 0x10;
  7298     044D  3010               	movlw	16
  7299     044E  008E               	movwf	14	;volatile
  7300     044F                     l3319:
  7301                           
  7302                           ;mcc_generated_files/pin_manager.c: 68:     TRISE = 0x08;
  7303     044F  3008               	movlw	8
  7304     0450  0021               	movlb	1	; select bank1
  7305     0451  0090               	movwf	16	;volatile
  7306     0452                     l3321:
  7307                           
  7308                           ;mcc_generated_files/pin_manager.c: 69:     TRISA = 0xFC;
  7309     0452  30FC               	movlw	252
  7310     0453  008C               	movwf	12	;volatile
  7311     0454                     l3323:
  7312                           
  7313                           ;mcc_generated_files/pin_manager.c: 70:     TRISB = 0xFE;
  7314     0454  30FE               	movlw	254
  7315     0455  008D               	movwf	13	;volatile
  7316     0456                     l3325:
  7317                           
  7318                           ;mcc_generated_files/pin_manager.c: 71:     TRISC = 0xEB;
  7319     0456  30EB               	movlw	235
  7320     0457  008E               	movwf	14	;volatile
  7321     0458                     l3327:
  7322                           
  7323                           ;mcc_generated_files/pin_manager.c: 76:     ANSELB = 0x1E;
  7324     0458  301E               	movlw	30
  7325     0459  0023               	movlb	3	; select bank3
  7326     045A  008D               	movwf	13	;volatile
  7327     045B                     l3329:
  7328                           
  7329                           ;mcc_generated_files/pin_manager.c: 77:     ANSELA = 0x3F;
  7330     045B  303F               	movlw	63
  7331     045C  008C               	movwf	12	;volatile
  7332     045D                     l3331:
  7333                           
  7334                           ;mcc_generated_files/pin_manager.c: 82:     WPUE = 0x00;
  7335     045D  0024               	movlb	4	; select bank4
  7336     045E  0190               	clrf	16	;volatile
  7337                           
  7338                           ;mcc_generated_files/pin_manager.c: 83:     WPUB = 0x20;
  7339     045F  3020               	movlw	32
  7340     0460  008D               	movwf	13	;volatile
  7341     0461                     l3333:
  7342                           
  7343                           ;mcc_generated_files/pin_manager.c: 84:     OPTION_REGbits.nWPUEN = 0;
  7344     0461  0021               	movlb	1	; select bank1
  7345     0462  1395               	bcf	21,7	;volatile
  7346     0463                     l3335:
  7347                           
  7348                           ;mcc_generated_files/pin_manager.c: 90:     APFCON = 0x00;
  7349     0463  0022               	movlb	2	; select bank2
  7350     0464  019D               	clrf	29	;volatile
  7351     0465                     l137:
  7352     0465  0008               	return
  7353     0466                     __end_of_PIN_MANAGER_Initialize:
  7354                           
  7355                           	psect	text52
  7356     05D7                     __ptext52:	
  7357 ;; *************** function _OSCILLATOR_Initialize *****************
  7358 ;; Defined at:
  7359 ;;		line 64 in file "mcc_generated_files/mcc.c"
  7360 ;; Parameters:    Size  Location     Type
  7361 ;;		None
  7362 ;; Auto vars:     Size  Location     Type
  7363 ;;		None
  7364 ;; Return value:  Size  Location     Type
  7365 ;;                  1    wreg      void 
  7366 ;; Registers used:
  7367 ;;		wreg, status,2
  7368 ;; Tracked objects:
  7369 ;;		On entry : 0/0
  7370 ;;		On exit  : 0/0
  7371 ;;		Unchanged: 0/0
  7372 ;; Data sizes:     COMMON   BANK0   BANK1   BANK2   BANK3   BANK4   BANK5   BANK6
  7373 ;;      Params:         0       0       0       0       0       0       0       0
  7374 ;;      Locals:         0       0       0       0       0       0       0       0
  7375 ;;      Temps:          0       0       0       0       0       0       0       0
  7376 ;;      Totals:         0       0       0       0       0       0       0       0
  7377 ;;Total ram usage:        0 bytes
  7378 ;; Hardware stack levels used: 1
  7379 ;; Hardware stack levels required when called: 4
  7380 ;; This function calls:
  7381 ;;		Nothing
  7382 ;; This function is called by:
  7383 ;;		_SYSTEM_Initialize
  7384 ;; This function uses a non-reentrant model
  7385 ;;
  7386                           
  7387     05D7                     _OSCILLATOR_Initialize:	
  7388                           ;psect for function _OSCILLATOR_Initialize
  7389                           
  7390     05D7                     l3337:	
  7391                           ;incstack = 0
  7392                           ; Regs used in _OSCILLATOR_Initialize: [wreg+status,2]
  7393                           
  7394                           
  7395                           ;mcc_generated_files/mcc.c: 67:     OSCCON = 0x70;
  7396     05D7  3070               	movlw	112
  7397     05D8  0021               	movlb	1	; select bank1
  7398     05D9  0099               	movwf	25	;volatile
  7399     05DA                     l3339:
  7400                           
  7401                           ;mcc_generated_files/mcc.c: 69:     OSCTUNE = 0x00;
  7402     05DA  0198               	clrf	24	;volatile
  7403     05DB                     l3341:
  7404                           
  7405                           ;mcc_generated_files/mcc.c: 71:     BORCON = 0x00;
  7406     05DB  0022               	movlb	2	; select bank2
  7407     05DC  0196               	clrf	22	;volatile
  7408     05DD                     l34:	
  7409                           ;mcc_generated_files/mcc.c: 74:     {;mcc_generated_files/mcc.c: 75:     }
  7410                           
  7411                           
  7412                           ;mcc_generated_files/mcc.c: 73:     while(PLLR == 0)
  7413     05DD  0021               	movlb	1	; select bank1
  7414     05DE  1F1A               	btfss	26,6	;volatile
  7415     05DF  2DE1               	goto	u3701
  7416     05E0  2DE2               	goto	u3700
  7417     05E1                     u3701:
  7418     05E1  2DDD               	goto	l34
  7419     05E2                     u3700:
  7420     05E2                     l37:
  7421     05E2  0008               	return
  7422     05E3                     __end_of_OSCILLATOR_Initialize:
  7423                           
  7424                           	psect	text53
  7425     05B1                     __ptext53:	
  7426 ;; *************** function _EPWM1_Initialize *****************
  7427 ;; Defined at:
  7428 ;;		line 64 in file "mcc_generated_files/epwm1.c"
  7429 ;; Parameters:    Size  Location     Type
  7430 ;;		None
  7431 ;; Auto vars:     Size  Location     Type
  7432 ;;		None
  7433 ;; Return value:  Size  Location     Type
  7434 ;;                  1    wreg      void 
  7435 ;; Registers used:
  7436 ;;		wreg, status,2, status,0
  7437 ;; Tracked objects:
  7438 ;;		On entry : 0/0
  7439 ;;		On exit  : 0/0
  7440 ;;		Unchanged: 0/0
  7441 ;; Data sizes:     COMMON   BANK0   BANK1   BANK2   BANK3   BANK4   BANK5   BANK6
  7442 ;;      Params:         0       0       0       0       0       0       0       0
  7443 ;;      Locals:         0       0       0       0       0       0       0       0
  7444 ;;      Temps:          0       0       0       0       0       0       0       0
  7445 ;;      Totals:         0       0       0       0       0       0       0       0
  7446 ;;Total ram usage:        0 bytes
  7447 ;; Hardware stack levels used: 1
  7448 ;; Hardware stack levels required when called: 4
  7449 ;; This function calls:
  7450 ;;		Nothing
  7451 ;; This function is called by:
  7452 ;;		_SYSTEM_Initialize
  7453 ;; This function uses a non-reentrant model
  7454 ;;
  7455                           
  7456     05B1                     _EPWM1_Initialize:	
  7457                           ;psect for function _EPWM1_Initialize
  7458                           
  7459     05B1                     l3345:	
  7460                           ;incstack = 0
  7461                           ; Regs used in _EPWM1_Initialize: [wreg+status,2+status,0]
  7462                           
  7463                           
  7464                           ;mcc_generated_files/epwm1.c: 69:  CCP1CON = 0x0C;
  7465     05B1  300C               	movlw	12
  7466     05B2  0025               	movlb	5	; select bank5
  7467     05B3  0093               	movwf	19	;volatile
  7468     05B4                     l3347:
  7469                           
  7470                           ;mcc_generated_files/epwm1.c: 72:   ECCP1AS = 0x00;
  7471     05B4  0195               	clrf	21	;volatile
  7472     05B5                     l3349:
  7473                           
  7474                           ;mcc_generated_files/epwm1.c: 75:   PWM1CON = 0x80;
  7475     05B5  3080               	movlw	128
  7476     05B6  0094               	movwf	20	;volatile
  7477     05B7                     l3351:
  7478                           
  7479                           ;mcc_generated_files/epwm1.c: 78:   PSTR1CON = 0x01;
  7480     05B7  3001               	movlw	1
  7481     05B8  0096               	movwf	22	;volatile
  7482     05B9                     l3353:
  7483                           
  7484                           ;mcc_generated_files/epwm1.c: 81:   CCPR1H = 0x00;
  7485     05B9  0192               	clrf	18	;volatile
  7486     05BA                     l3355:
  7487                           
  7488                           ;mcc_generated_files/epwm1.c: 84:  CCPR1L = 0x00;
  7489     05BA  0191               	clrf	17	;volatile
  7490     05BB                     l3357:
  7491                           
  7492                           ;mcc_generated_files/epwm1.c: 87:   CCPTMRS0bits.C1TSEL = 0x0;
  7493     05BB  30FC               	movlw	-4
  7494     05BC  059E               	andwf	30,f	;volatile
  7495     05BD                     l251:
  7496     05BD  0008               	return
  7497     05BE                     __end_of_EPWM1_Initialize:
  7498                           
  7499                           	psect	text54
  7500     05ED                     __ptext54:	
  7501 ;; *************** function _ECCP3_Initialize *****************
  7502 ;; Defined at:
  7503 ;;		line 59 in file "mcc_generated_files/eccp3.c"
  7504 ;; Parameters:    Size  Location     Type
  7505 ;;		None
  7506 ;; Auto vars:     Size  Location     Type
  7507 ;;		None
  7508 ;; Return value:  Size  Location     Type
  7509 ;;                  1    wreg      void 
  7510 ;; Registers used:
  7511 ;;		wreg, status,2
  7512 ;; Tracked objects:
  7513 ;;		On entry : 0/0
  7514 ;;		On exit  : 0/0
  7515 ;;		Unchanged: 0/0
  7516 ;; Data sizes:     COMMON   BANK0   BANK1   BANK2   BANK3   BANK4   BANK5   BANK6
  7517 ;;      Params:         0       0       0       0       0       0       0       0
  7518 ;;      Locals:         0       0       0       0       0       0       0       0
  7519 ;;      Temps:          0       0       0       0       0       0       0       0
  7520 ;;      Totals:         0       0       0       0       0       0       0       0
  7521 ;;Total ram usage:        0 bytes
  7522 ;; Hardware stack levels used: 1
  7523 ;; Hardware stack levels required when called: 4
  7524 ;; This function calls:
  7525 ;;		Nothing
  7526 ;; This function is called by:
  7527 ;;		_SYSTEM_Initialize
  7528 ;; This function uses a non-reentrant model
  7529 ;;
  7530                           
  7531     05ED                     _ECCP3_Initialize:	
  7532                           ;psect for function _ECCP3_Initialize
  7533                           
  7534     05ED                     l3375:	
  7535                           ;incstack = 0
  7536                           ; Regs used in _ECCP3_Initialize: [wreg+status,2]
  7537                           
  7538                           
  7539                           ;mcc_generated_files/eccp3.c: 64:  CCP3CON = 0x05;
  7540     05ED  3005               	movlw	5
  7541     05EE  0026               	movlb	6	; select bank6
  7542     05EF  0093               	movwf	19	;volatile
  7543     05F0                     l3377:
  7544                           
  7545                           ;mcc_generated_files/eccp3.c: 67:  CCPR3H = 0x00;
  7546     05F0  0192               	clrf	18	;volatile
  7547     05F1                     l3379:
  7548                           
  7549                           ;mcc_generated_files/eccp3.c: 70:  CCPR3L = 0x00;
  7550     05F1  0191               	clrf	17	;volatile
  7551     05F2                     l3381:
  7552                           
  7553                           ;mcc_generated_files/eccp3.c: 73:     PIR3bits.CCP3IF = 0;
  7554     05F2  0020               	movlb	0	; select bank0
  7555     05F3  1213               	bcf	19,4	;volatile
  7556     05F4                     l3383:
  7557                           
  7558                           ;mcc_generated_files/eccp3.c: 76:     PIE3bits.CCP3IE = 1;
  7559     05F4  0021               	movlb	1	; select bank1
  7560     05F5  1613               	bsf	19,4	;volatile
  7561     05F6                     l231:
  7562     05F6  0008               	return
  7563     05F7                     __end_of_ECCP3_Initialize:
  7564                           
  7565                           	psect	intentry
  7566     0004                     __pintentry:	
  7567 ;; *************** function _INTERRUPT_InterruptManager *****************
  7568 ;; Defined at:
  7569 ;;		line 52 in file "mcc_generated_files/interrupt_manager.c"
  7570 ;; Parameters:    Size  Location     Type
  7571 ;;		None
  7572 ;; Auto vars:     Size  Location     Type
  7573 ;;		None
  7574 ;; Return value:  Size  Location     Type
  7575 ;;                  1    wreg      void 
  7576 ;; Registers used:
  7577 ;;		wreg, status,2, status,0, pclath, cstack
  7578 ;; Tracked objects:
  7579 ;;		On entry : 0/0
  7580 ;;		On exit  : 0/0
  7581 ;;		Unchanged: 0/0
  7582 ;; Data sizes:     COMMON   BANK0   BANK1   BANK2   BANK3   BANK4   BANK5   BANK6
  7583 ;;      Params:         0       0       0       0       0       0       0       0
  7584 ;;      Locals:         0       0       0       0       0       0       0       0
  7585 ;;      Temps:          0       0       0       0       0       0       0       0
  7586 ;;      Totals:         0       0       0       0       0       0       0       0
  7587 ;;Total ram usage:        0 bytes
  7588 ;; Hardware stack levels used: 1
  7589 ;; Hardware stack levels required when called: 3
  7590 ;; This function calls:
  7591 ;;		_ECCP3_CaptureISR
  7592 ;;		_TMR0_ISR
  7593 ;; This function is called by:
  7594 ;;		Interrupt level 1
  7595 ;; This function uses a non-reentrant model
  7596 ;;
  7597                           
  7598     0004                     _INTERRUPT_InterruptManager:
  7599                           
  7600                           ;incstack = 0
  7601     0004  147E               	bsf	int$flags,0	;set compiler interrupt flag (level 1)
  7602                           
  7603                           ; Regs used in _INTERRUPT_InterruptManager: [wreg+status,2+status,0+pclath+cstack]
  7604     0005  3180               	pagesel	$
  7605     0006                     i1l2847:
  7606                           
  7607                           ;mcc_generated_files/interrupt_manager.c: 55:     if(INTCONbits.TMR0IE == 1 && INTCONbit
      +                          s.TMR0IF == 1)
  7608     0006  1E8B               	btfss	11,5	;volatile
  7609     0007  2809               	goto	u267_21
  7610     0008  280A               	goto	u267_20
  7611     0009                     u267_21:
  7612     0009  2812               	goto	i1l55
  7613     000A                     u267_20:
  7614     000A                     i1l2849:
  7615     000A  1D0B               	btfss	11,2	;volatile
  7616     000B  280D               	goto	u268_21
  7617     000C  280E               	goto	u268_20
  7618     000D                     u268_21:
  7619     000D  2812               	goto	i1l55
  7620     000E                     u268_20:
  7621     000E                     i1l2851:
  7622                           
  7623                           ;mcc_generated_files/interrupt_manager.c: 56:     {;mcc_generated_files/interrupt_manage
      +                          r.c: 57:         TMR0_ISR();
  7624     000E  3184  24D4  3180   	fcall	_TMR0_ISR
  7625                           
  7626                           ;mcc_generated_files/interrupt_manager.c: 58:     }
  7627     0011  2824               	goto	i1l61
  7628     0012                     i1l55:	
  7629                           ;mcc_generated_files/interrupt_manager.c: 59:     else if(INTCONbits.PEIE == 1)
  7630                           
  7631     0012  1F0B               	btfss	11,6	;volatile
  7632     0013  2815               	goto	u269_21
  7633     0014  2816               	goto	u269_20
  7634     0015                     u269_21:
  7635     0015  2824               	goto	i1l61
  7636     0016                     u269_20:
  7637     0016                     i1l2853:
  7638                           
  7639                           ;mcc_generated_files/interrupt_manager.c: 60:     {;mcc_generated_files/interrupt_manage
      +                          r.c: 61:         if(PIE3bits.CCP3IE == 1 && PIR3bits.CCP3IF == 1)
  7640     0016  0021               	movlb	1	; select bank1
  7641     0017  1E13               	btfss	19,4	;volatile
  7642     0018  281A               	goto	u270_21
  7643     0019  281B               	goto	u270_20
  7644     001A                     u270_21:
  7645     001A  2824               	goto	i1l60
  7646     001B                     u270_20:
  7647     001B                     i1l2855:
  7648     001B  0020               	movlb	0	; select bank0
  7649     001C  1E13               	btfss	19,4	;volatile
  7650     001D  281F               	goto	u271_21
  7651     001E  2820               	goto	u271_20
  7652     001F                     u271_21:
  7653     001F  2824               	goto	i1l60
  7654     0020                     u271_20:
  7655     0020                     i1l2857:
  7656                           
  7657                           ;mcc_generated_files/interrupt_manager.c: 62:         {;mcc_generated_files/interrupt_ma
      +                          nager.c: 63:             ECCP3_CaptureISR();
  7658     0020  3185  2595  3180   	fcall	_ECCP3_CaptureISR
  7659                           
  7660                           ;mcc_generated_files/interrupt_manager.c: 64:         }
  7661     0023  2824               	goto	i1l61
  7662     0024                     i1l60:	
  7663                           ;mcc_generated_files/interrupt_manager.c: 71:     {;mcc_generated_files/interrupt_manage
      +                          r.c: 73:     }
  7664                           
  7665     0024                     i1l61:
  7666     0024  107E               	bcf	int$flags,0	;clear compiler interrupt flag (level 1)
  7667     0025  0009               	retfie
  7668     0026                     __end_of_INTERRUPT_InterruptManager:
  7669                           
  7670                           	psect	text56
  7671     04D4                     __ptext56:	
  7672 ;; *************** function _TMR0_ISR *****************
  7673 ;; Defined at:
  7674 ;;		line 108 in file "mcc_generated_files/tmr0.c"
  7675 ;; Parameters:    Size  Location     Type
  7676 ;;		None
  7677 ;; Auto vars:     Size  Location     Type
  7678 ;;		None
  7679 ;; Return value:  Size  Location     Type
  7680 ;;                  1    wreg      void 
  7681 ;; Registers used:
  7682 ;;		wreg, status,2, status,0, pclath, cstack
  7683 ;; Tracked objects:
  7684 ;;		On entry : 0/0
  7685 ;;		On exit  : 0/0
  7686 ;;		Unchanged: 0/0
  7687 ;; Data sizes:     COMMON   BANK0   BANK1   BANK2   BANK3   BANK4   BANK5   BANK6
  7688 ;;      Params:         0       0       0       0       0       0       0       0
  7689 ;;      Locals:         0       0       0       0       0       0       0       0
  7690 ;;      Temps:          0       0       0       0       0       0       0       0
  7691 ;;      Totals:         0       0       0       0       0       0       0       0
  7692 ;;Total ram usage:        0 bytes
  7693 ;; Hardware stack levels used: 1
  7694 ;; Hardware stack levels required when called: 2
  7695 ;; This function calls:
  7696 ;;		_TMR0_CallBack
  7697 ;; This function is called by:
  7698 ;;		_INTERRUPT_InterruptManager
  7699 ;; This function uses a non-reentrant model
  7700 ;;
  7701                           
  7702     04D4                     _TMR0_ISR:	
  7703                           ;psect for function _TMR0_ISR
  7704                           
  7705     04D4                     i1l2803:	
  7706                           ;incstack = 0
  7707                           ; Regs used in _TMR0_ISR: [wreg+status,2+status,0+pclath+cstack]
  7708                           
  7709                           
  7710                           ;mcc_generated_files/tmr0.c: 110:     static volatile uint16_t CountCallBack = 0;;mcc_ge
      +                          nerated_files/tmr0.c: 113:     INTCONbits.TMR0IF = 0;
  7711     04D4  110B               	bcf	11,2	;volatile
  7712     04D5                     i1l2805:
  7713                           
  7714                           ;mcc_generated_files/tmr0.c: 115:     TMR0 = timer0ReloadVal;
  7715     04D5  0875               	movf	_timer0ReloadVal,w	;volatile
  7716     04D6  0020               	movlb	0	; select bank0
  7717     04D7  0095               	movwf	21	;volatile
  7718                           
  7719                           ;mcc_generated_files/tmr0.c: 118:     if (++CountCallBack >= 10)
  7720     04D8  3001               	movlw	1
  7721     04D9  07B3               	addwf	TMR0_ISR@CountCallBack,f	;volatile
  7722     04DA  3000               	movlw	0
  7723     04DB  3DB4               	addwfc	TMR0_ISR@CountCallBack+1,f	;volatile
  7724     04DC  3000               	movlw	0
  7725     04DD  0234               	subwf	TMR0_ISR@CountCallBack+1,w	;volatile
  7726     04DE  300A               	movlw	10
  7727     04DF  1903               	skipnz
  7728     04E0  0233               	subwf	TMR0_ISR@CountCallBack,w	;volatile
  7729     04E1  1C03               	skipc
  7730     04E2  2CE4               	goto	u266_21
  7731     04E3  2CE5               	goto	u266_20
  7732     04E4                     u266_21:
  7733     04E4  2CEB               	goto	i1l174
  7734     04E5                     u266_20:
  7735     04E5                     i1l2807:
  7736                           
  7737                           ;mcc_generated_files/tmr0.c: 119:     {;mcc_generated_files/tmr0.c: 121:         TMR0_Ca
      +                          llBack();
  7738     04E5  3185  25BE  3184   	fcall	_TMR0_CallBack
  7739     04E8                     i1l2809:
  7740                           
  7741                           ;mcc_generated_files/tmr0.c: 124:         CountCallBack = 0;
  7742     04E8  0020               	movlb	0	; select bank0
  7743     04E9  01B3               	clrf	TMR0_ISR@CountCallBack	;volatile
  7744     04EA  01B4               	clrf	TMR0_ISR@CountCallBack+1	;volatile
  7745     04EB                     i1l174:
  7746     04EB  0008               	return
  7747     04EC                     __end_of_TMR0_ISR:
  7748                           
  7749                           	psect	text57
  7750     05BE                     __ptext57:	
  7751 ;; *************** function _TMR0_CallBack *****************
  7752 ;; Defined at:
  7753 ;;		line 130 in file "mcc_generated_files/tmr0.c"
  7754 ;; Parameters:    Size  Location     Type
  7755 ;;		None
  7756 ;; Auto vars:     Size  Location     Type
  7757 ;;		None
  7758 ;; Return value:  Size  Location     Type
  7759 ;;                  1    wreg      void 
  7760 ;; Registers used:
  7761 ;;		wreg, status,2, status,0, pclath, cstack
  7762 ;; Tracked objects:
  7763 ;;		On entry : 0/0
  7764 ;;		On exit  : 0/0
  7765 ;;		Unchanged: 0/0
  7766 ;; Data sizes:     COMMON   BANK0   BANK1   BANK2   BANK3   BANK4   BANK5   BANK6
  7767 ;;      Params:         0       0       0       0       0       0       0       0
  7768 ;;      Locals:         0       0       0       0       0       0       0       0
  7769 ;;      Temps:          0       0       0       0       0       0       0       0
  7770 ;;      Totals:         0       0       0       0       0       0       0       0
  7771 ;;Total ram usage:        0 bytes
  7772 ;; Hardware stack levels used: 1
  7773 ;; Hardware stack levels required when called: 1
  7774 ;; This function calls:
  7775 ;;		NULL
  7776 ;;		_TMR0_10MS_Even
  7777 ;;		_TMR0_DefaultInterruptHandler
  7778 ;; This function is called by:
  7779 ;;		_TMR0_ISR
  7780 ;; This function uses a non-reentrant model
  7781 ;;
  7782                           
  7783     05BE                     _TMR0_CallBack:	
  7784                           ;psect for function _TMR0_CallBack
  7785                           
  7786     05BE                     i1l2543:	
  7787                           ;incstack = 0
  7788                           ; Regs used in _TMR0_CallBack: [wreg+status,2+status,0+pclath+cstack]
  7789                           
  7790                           
  7791                           ;mcc_generated_files/tmr0.c: 134:     if(TMR0_InterruptHandler)
  7792     05BE  0020               	movlb	0	; select bank0
  7793     05BF  0835               	movf	_TMR0_InterruptHandler,w
  7794     05C0  0436               	iorwf	_TMR0_InterruptHandler+1,w
  7795     05C1  1903               	btfsc	3,2
  7796     05C2  2DC4               	goto	u236_21
  7797     05C3  2DC5               	goto	u236_20
  7798     05C4                     u236_21:
  7799     05C4  2DCA               	goto	i1l178
  7800     05C5                     u236_20:
  7801     05C5                     i1l2545:
  7802                           
  7803                           ;mcc_generated_files/tmr0.c: 135:     {;mcc_generated_files/tmr0.c: 136:         TMR0_In
      +                          terruptHandler();
  7804     05C5  0836               	movf	_TMR0_InterruptHandler+1,w
  7805     05C6  008A               	movwf	10
  7806     05C7  0835               	movf	_TMR0_InterruptHandler,w
  7807     05C8  000A               	callw
  7808     05C9  3185               	pagesel	$
  7809     05CA                     i1l178:
  7810     05CA  0008               	return
  7811     05CB                     __end_of_TMR0_CallBack:
  7812                           
  7813                           	psect	text58
  7814     0586                     __ptext58:	
  7815 ;; *************** function _TMR0_10MS_Even *****************
  7816 ;; Defined at:
  7817 ;;		line 596 in file "tundra.c"
  7818 ;; Parameters:    Size  Location     Type
  7819 ;;		None
  7820 ;; Auto vars:     Size  Location     Type
  7821 ;;		None
  7822 ;; Return value:  Size  Location     Type
  7823 ;;                  1    wreg      void 
  7824 ;; Registers used:
  7825 ;;		wreg, status,2, status,0
  7826 ;; Tracked objects:
  7827 ;;		On entry : 0/0
  7828 ;;		On exit  : 0/0
  7829 ;;		Unchanged: 0/0
  7830 ;; Data sizes:     COMMON   BANK0   BANK1   BANK2   BANK3   BANK4   BANK5   BANK6
  7831 ;;      Params:         0       0       0       0       0       0       0       0
  7832 ;;      Locals:         0       0       0       0       0       0       0       0
  7833 ;;      Temps:          1       0       0       0       0       0       0       0
  7834 ;;      Totals:         1       0       0       0       0       0       0       0
  7835 ;;Total ram usage:        1 bytes
  7836 ;; Hardware stack levels used: 1
  7837 ;; This function calls:
  7838 ;;		Nothing
  7839 ;; This function is called by:
  7840 ;;		_main
  7841 ;;		_TMR0_CallBack
  7842 ;; This function uses a non-reentrant model
  7843 ;;
  7844                           
  7845     0586                     _TMR0_10MS_Even:	
  7846                           ;psect for function _TMR0_10MS_Even
  7847                           
  7848     0586                     i1l2515:	
  7849                           ;incstack = 0
  7850                           ; Regs used in _TMR0_10MS_Even: [wreg+status,2+status,0]
  7851                           
  7852                           
  7853                           ;tundra.c: 597:   Communication_timer++;
  7854     0586  3001               	movlw	1
  7855     0587  00F6               	movwf	??_TMR0_10MS_Even
  7856     0588  0876               	movf	??_TMR0_10MS_Even,w
  7857     0589  0020               	movlb	0	; select bank0
  7858     058A  07C2               	addwf	_Communication_timer,f	;volatile
  7859     058B                     i1l2517:
  7860                           
  7861                           ;tundra.c: 598:   if (Communication_timer >= 200) {
  7862     058B  30C8               	movlw	200
  7863     058C  0242               	subwf	_Communication_timer,w	;volatile
  7864     058D  1C03               	skipc
  7865     058E  2D90               	goto	u235_21
  7866     058F  2D91               	goto	u235_20
  7867     0590                     u235_21:
  7868     0590  2D94               	goto	i1l604
  7869     0591                     u235_20:
  7870     0591                     i1l2519:
  7871                           
  7872                           ;tundra.c: 599:     eLamp_even = eEVEN_SIGNAL_TIMEOUT;
  7873     0591  3002               	movlw	2
  7874     0592  00C0               	movwf	_eLamp_even
  7875     0593                     i1l2521:
  7876                           
  7877                           ;tundra.c: 600:     Communication_timer = 0;
  7878     0593  01C2               	clrf	_Communication_timer	;volatile
  7879     0594                     i1l604:
  7880     0594  0008               	return
  7881     0595                     __end_of_TMR0_10MS_Even:
  7882                           
  7883                           	psect	text59
  7884     0697                     __ptext59:	
  7885 ;; *************** function _TMR0_DefaultInterruptHandler *****************
  7886 ;; Defined at:
  7887 ;;		line 144 in file "mcc_generated_files/tmr0.c"
  7888 ;; Parameters:    Size  Location     Type
  7889 ;;		None
  7890 ;; Auto vars:     Size  Location     Type
  7891 ;;		None
  7892 ;; Return value:  Size  Location     Type
  7893 ;;                  1    wreg      void 
  7894 ;; Registers used:
  7895 ;;		None
  7896 ;; Tracked objects:
  7897 ;;		On entry : 0/0
  7898 ;;		On exit  : 0/0
  7899 ;;		Unchanged: 0/0
  7900 ;; Data sizes:     COMMON   BANK0   BANK1   BANK2   BANK3   BANK4   BANK5   BANK6
  7901 ;;      Params:         0       0       0       0       0       0       0       0
  7902 ;;      Locals:         0       0       0       0       0       0       0       0
  7903 ;;      Temps:          0       0       0       0       0       0       0       0
  7904 ;;      Totals:         0       0       0       0       0       0       0       0
  7905 ;;Total ram usage:        0 bytes
  7906 ;; Hardware stack levels used: 1
  7907 ;; This function calls:
  7908 ;;		Nothing
  7909 ;; This function is called by:
  7910 ;;		_TMR0_Initialize
  7911 ;;		_TMR0_CallBack
  7912 ;; This function uses a non-reentrant model
  7913 ;;
  7914                           
  7915     0697                     _TMR0_DefaultInterruptHandler:	
  7916                           ;psect for function _TMR0_DefaultInterruptHandler
  7917                           
  7918     0697                     i1l184:	
  7919                           ;incstack = 0
  7920                           ; Regs used in _TMR0_DefaultInterruptHandler: []
  7921                           
  7922     0697  0008               	return
  7923     0698                     __end_of_TMR0_DefaultInterruptHandler:
  7924                           
  7925                           	psect	text60
  7926     0595                     __ptext60:	
  7927 ;; *************** function _ECCP3_CaptureISR *****************
  7928 ;; Defined at:
  7929 ;;		line 80 in file "mcc_generated_files/eccp3.c"
  7930 ;; Parameters:    Size  Location     Type
  7931 ;;		None
  7932 ;; Auto vars:     Size  Location     Type
  7933 ;;  module          2    4[COMMON] struct CCPR3Reg_tag
  7934 ;; Return value:  Size  Location     Type
  7935 ;;                  1    wreg      void 
  7936 ;; Registers used:
  7937 ;;		wreg, status,2, status,0, pclath, cstack
  7938 ;; Tracked objects:
  7939 ;;		On entry : 0/0
  7940 ;;		On exit  : 0/0
  7941 ;;		Unchanged: 0/0
  7942 ;; Data sizes:     COMMON   BANK0   BANK1   BANK2   BANK3   BANK4   BANK5   BANK6
  7943 ;;      Params:         0       0       0       0       0       0       0       0
  7944 ;;      Locals:         2       0       0       0       0       0       0       0
  7945 ;;      Temps:          0       0       0       0       0       0       0       0
  7946 ;;      Totals:         2       0       0       0       0       0       0       0
  7947 ;;Total ram usage:        2 bytes
  7948 ;; Hardware stack levels used: 1
  7949 ;; Hardware stack levels required when called: 1
  7950 ;; This function calls:
  7951 ;;		_ECCP3_CallBack
  7952 ;; This function is called by:
  7953 ;;		_INTERRUPT_InterruptManager
  7954 ;; This function uses a non-reentrant model
  7955 ;;
  7956                           
  7957     0595                     _ECCP3_CaptureISR:	
  7958                           ;psect for function _ECCP3_CaptureISR
  7959                           
  7960     0595                     i1l2811:	
  7961                           ;incstack = 0
  7962                           ; Regs used in _ECCP3_CaptureISR: [wreg+status,2+status,0+pclath+cstack]
  7963                           
  7964                           
  7965                           ;mcc_generated_files/eccp3.c: 82:     CCP3_PERIOD_REG_T module;;mcc_generated_files/eccp
      +                          3.c: 85:     PIR3bits.CCP3IF = 0;
  7966     0595  0020               	movlb	0	; select bank0
  7967     0596  1213               	bcf	19,4	;volatile
  7968     0597                     i1l2813:
  7969                           
  7970                           ;mcc_generated_files/eccp3.c: 88:     module.ccpr3l = CCPR3L;
  7971     0597  0026               	movlb	6	; select bank6
  7972     0598  0811               	movf	17,w	;volatile
  7973     0599  00FA               	movwf	ECCP3_CaptureISR@module
  7974                           
  7975                           ;mcc_generated_files/eccp3.c: 89:     module.ccpr3h = CCPR3H;
  7976     059A  0812               	movf	18,w	;volatile
  7977     059B  00FB               	movwf	ECCP3_CaptureISR@module+1
  7978     059C                     i1l2815:
  7979                           
  7980                           ;mcc_generated_files/eccp3.c: 92:     ECCP3_CallBack(module.ccpr3_16Bit);
  7981     059C  087B               	movf	ECCP3_CaptureISR@module+1,w
  7982     059D  00F7               	movwf	ECCP3_CallBack@capturedValue+1
  7983     059E  087A               	movf	ECCP3_CaptureISR@module,w
  7984     059F  00F6               	movwf	ECCP3_CallBack@capturedValue
  7985     05A0  3182  2269  3185   	fcall	_ECCP3_CallBack
  7986     05A3                     i1l234:
  7987     05A3  0008               	return
  7988     05A4                     __end_of_ECCP3_CaptureISR:
  7989                           
  7990                           	psect	text61
  7991     0269                     __ptext61:	
  7992 ;; *************** function _ECCP3_CallBack *****************
  7993 ;; Defined at:
  7994 ;;		line 492 in file "tundra.c"
  7995 ;; Parameters:    Size  Location     Type
  7996 ;;  capturedValu    2    0[COMMON] unsigned short 
  7997 ;; Auto vars:     Size  Location     Type
  7998 ;;		None
  7999 ;; Return value:  Size  Location     Type
  8000 ;;                  1    wreg      void 
  8001 ;; Registers used:
  8002 ;;		wreg, status,2, status,0
  8003 ;; Tracked objects:
  8004 ;;		On entry : 0/0
  8005 ;;		On exit  : 0/0
  8006 ;;		Unchanged: 0/0
  8007 ;; Data sizes:     COMMON   BANK0   BANK1   BANK2   BANK3   BANK4   BANK5   BANK6
  8008 ;;      Params:         2       0       0       0       0       0       0       0
  8009 ;;      Locals:         0       0       0       0       0       0       0       0
  8010 ;;      Temps:          2       0       0       0       0       0       0       0
  8011 ;;      Totals:         4       0       0       0       0       0       0       0
  8012 ;;Total ram usage:        4 bytes
  8013 ;; Hardware stack levels used: 1
  8014 ;; This function calls:
  8015 ;;		Nothing
  8016 ;; This function is called by:
  8017 ;;		_ECCP3_CaptureISR
  8018 ;; This function uses a non-reentrant model
  8019 ;;
  8020                           
  8021     0269                     _ECCP3_CallBack:	
  8022                           ;psect for function _ECCP3_CallBack
  8023                           
  8024     0269                     i1l2547:	
  8025                           ;incstack = 0
  8026                           ; Regs used in _ECCP3_CallBack: [wreg+status,2+status,0]
  8027                           
  8028     0269  3004               	movlw	4
  8029     026A  0026               	movlb	6	; select bank6
  8030     026B  0613               	xorwf	19,w	;volatile
  8031     026C  1D03               	btfss	3,2
  8032     026D  2A6F               	goto	u237_21
  8033     026E  2A70               	goto	u237_20
  8034     026F                     u237_21:
  8035     026F  2AF3               	goto	i1l2589
  8036     0270                     u237_20:
  8037     0270                     i1l2549:
  8038                           
  8039                           ;tundra.c: 506:     falling_edge_time = capturedValue;
  8040     0270  0877               	movf	ECCP3_CallBack@capturedValue+1,w
  8041     0271  0020               	movlb	0	; select bank0
  8042     0272  00AE               	movwf	ECCP3_CallBack@falling_edge_time+1
  8043     0273  0876               	movf	ECCP3_CallBack@capturedValue,w
  8044     0274  00AD               	movwf	ECCP3_CallBack@falling_edge_time
  8045     0275  3005               	movlw	5
  8046     0276  0026               	movlb	6	; select bank6
  8047     0277  0093               	movwf	19	;volatile
  8048     0278                     i1l2551:
  8049                           
  8050                           ;tundra.c: 508:     if (fRise_edge) {
  8051     0278  0020               	movlb	0	; select bank0
  8052     0279  083A               	movf	ECCP3_CallBack@fRise_edge,w
  8053     027A  1903               	btfsc	3,2
  8054     027B  2A7D               	goto	u238_21
  8055     027C  2A7E               	goto	u238_20
  8056     027D                     u238_21:
  8057     027D  2B0A               	goto	i1l597
  8058     027E                     u238_20:
  8059     027E                     i1l2553:
  8060                           
  8061                           ;tundra.c: 509:       fRise_edge = 0;
  8062     027E  01BA               	clrf	ECCP3_CallBack@fRise_edge
  8063     027F                     i1l2557:
  8064                           
  8065                           ;tundra.c: 512:         positive_pulse_width = falling_edge_time - rising_edge_time;
  8066     027F  082B               	movf	ECCP3_CallBack@rising_edge_time,w
  8067     0280  022D               	subwf	ECCP3_CallBack@falling_edge_time,w
  8068     0281  00AF               	movwf	ECCP3_CallBack@positive_pulse_width
  8069     0282  082C               	movf	ECCP3_CallBack@rising_edge_time+1,w
  8070     0283  3B2E               	subwfb	ECCP3_CallBack@falling_edge_time+1,w
  8071     0284  00B0               	movwf	ECCP3_CallBack@positive_pulse_width+1
  8072     0285                     i1l582:	
  8073                           ;tundra.c: 516:       }
  8074                           
  8075                           
  8076                           ;tundra.c: 518:       negative_pulse_width_us = (positive_pulse_width >> 3) & 0xff;
  8077     0285  0830               	movf	ECCP3_CallBack@positive_pulse_width+1,w
  8078     0286  00F9               	movwf	??_ECCP3_CallBack+1
  8079     0287  082F               	movf	ECCP3_CallBack@positive_pulse_width,w
  8080     0288  00F8               	movwf	??_ECCP3_CallBack
  8081     0289  36F9               	lsrf	??_ECCP3_CallBack+1,f
  8082     028A  0CF8               	rrf	??_ECCP3_CallBack,f
  8083     028B  36F9               	lsrf	??_ECCP3_CallBack+1,f
  8084     028C  0CF8               	rrf	??_ECCP3_CallBack,f
  8085     028D  36F9               	lsrf	??_ECCP3_CallBack+1,f
  8086     028E  0CF8               	rrf	??_ECCP3_CallBack,f
  8087     028F  0878               	movf	??_ECCP3_CallBack,w
  8088     0290  00F0               	movwf	ECCP3_CallBack@negative_pulse_width_us
  8089                           
  8090                           ;tundra.c: 519:       positive_pulse_width_us = (negative_pulse_width >> 3) & 0xff;
  8091     0291  0832               	movf	ECCP3_CallBack@negative_pulse_width+1,w
  8092     0292  00F9               	movwf	??_ECCP3_CallBack+1
  8093     0293  0831               	movf	ECCP3_CallBack@negative_pulse_width,w
  8094     0294  00F8               	movwf	??_ECCP3_CallBack
  8095     0295  36F9               	lsrf	??_ECCP3_CallBack+1,f
  8096     0296  0CF8               	rrf	??_ECCP3_CallBack,f
  8097     0297  36F9               	lsrf	??_ECCP3_CallBack+1,f
  8098     0298  0CF8               	rrf	??_ECCP3_CallBack,f
  8099     0299  36F9               	lsrf	??_ECCP3_CallBack+1,f
  8100     029A  0CF8               	rrf	??_ECCP3_CallBack,f
  8101     029B  0878               	movf	??_ECCP3_CallBack,w
  8102     029C  00F1               	movwf	ECCP3_CallBack@positive_pulse_width_us
  8103     029D                     i1l2561:
  8104     029D  301A               	movlw	26
  8105     029E  0271               	subwf	ECCP3_CallBack@positive_pulse_width_us,w
  8106     029F  1C03               	skipc
  8107     02A0  2AA2               	goto	u239_21
  8108     02A1  2AA3               	goto	u239_20
  8109     02A2                     u239_21:
  8110     02A2  2AA6               	goto	i1l583
  8111     02A3                     u239_20:
  8112     02A3                     i1l2563:
  8113                           
  8114                           ;tundra.c: 523:         LATCbits.LATC4 = 0;
  8115     02A3  0022               	movlb	2	; select bank2
  8116     02A4  120E               	bcf	14,4	;volatile
  8117                           
  8118                           ;tundra.c: 524:       } else {
  8119     02A5  2AA8               	goto	i1l2565
  8120     02A6                     i1l583:
  8121                           
  8122                           ;tundra.c: 525:         LATCbits.LATC4 = 1;
  8123     02A6  0022               	movlb	2	; select bank2
  8124     02A7  160E               	bsf	14,4	;volatile
  8125     02A8                     i1l2565:
  8126                           
  8127                           ;tundra.c: 528:       if (positive_pulse_width_us > negative_pulse_width_us)
  8128     02A8  0871               	movf	ECCP3_CallBack@positive_pulse_width_us,w
  8129     02A9  0270               	subwf	ECCP3_CallBack@negative_pulse_width_us,w
  8130     02AA  1803               	skipnc
  8131     02AB  2AAD               	goto	u240_21
  8132     02AC  2AAE               	goto	u240_20
  8133     02AD                     u240_21:
  8134     02AD  2AB3               	goto	i1l2569
  8135     02AE                     u240_20:
  8136     02AE                     i1l2567:
  8137                           
  8138                           ;tundra.c: 529:         diff_us = positive_pulse_width_us - negative_pulse_width_us;
  8139     02AE  0870               	movf	ECCP3_CallBack@negative_pulse_width_us,w
  8140     02AF  0271               	subwf	ECCP3_CallBack@positive_pulse_width_us,w
  8141     02B0  0020               	movlb	0	; select bank0
  8142     02B1  00BC               	movwf	ECCP3_CallBack@diff_us
  8143     02B2  2AB7               	goto	i1l586
  8144     02B3                     i1l2569:
  8145                           
  8146                           ;tundra.c: 531:         diff_us = negative_pulse_width_us - positive_pulse_width_us;
  8147     02B3  0871               	movf	ECCP3_CallBack@positive_pulse_width_us,w
  8148     02B4  0270               	subwf	ECCP3_CallBack@negative_pulse_width_us,w
  8149     02B5  0020               	movlb	0	; select bank0
  8150     02B6  00BC               	movwf	ECCP3_CallBack@diff_us
  8151     02B7                     i1l586:
  8152                           
  8153                           ;tundra.c: 542:       if (!fStart_bit) {
  8154     02B7  0839               	movf	ECCP3_CallBack@fStart_bit,w
  8155     02B8  1D03               	btfss	3,2
  8156     02B9  2ABB               	goto	u241_21
  8157     02BA  2ABC               	goto	u241_20
  8158     02BB                     u241_21:
  8159     02BB  2AC6               	goto	i1l2577
  8160     02BC                     u241_20:
  8161     02BC                     i1l2571:
  8162     02BC  3010               	movlw	16
  8163     02BD  023C               	subwf	ECCP3_CallBack@diff_us,w
  8164     02BE  1803               	skipnc
  8165     02BF  2AC1               	goto	u242_21
  8166     02C0  2AC2               	goto	u242_20
  8167     02C1                     u242_21:
  8168     02C1  2AF2               	goto	i1l580
  8169     02C2                     u242_20:
  8170     02C2                     i1l2573:
  8171                           
  8172                           ;tundra.c: 546:           fStart_bit = 1;
  8173     02C2  01B9               	clrf	ECCP3_CallBack@fStart_bit
  8174     02C3  0AB9               	incf	ECCP3_CallBack@fStart_bit,f
  8175     02C4                     i1l2575:
  8176                           
  8177                           ;tundra.c: 547:           bit_cnt = 0;
  8178     02C4  01BB               	clrf	ECCP3_CallBack@bit_cnt
  8179     02C5  2B0A               	goto	i1l597
  8180     02C6                     i1l2577:
  8181     02C6  3010               	movlw	16
  8182     02C7  023C               	subwf	ECCP3_CallBack@diff_us,w
  8183     02C8  1803               	skipnc
  8184     02C9  2ACB               	goto	u243_21
  8185     02CA  2ACC               	goto	u243_20
  8186     02CB                     u243_21:
  8187     02CB  2AD9               	goto	i1l2581
  8188     02CC                     u243_20:
  8189     02CC                     i1l2579:
  8190                           
  8191                           ;tundra.c: 553:           rx_data &= ~(1 << bit_cnt);
  8192     02CC  3001               	movlw	1
  8193     02CD  00F8               	movwf	??_ECCP3_CallBack
  8194     02CE  0A3B               	incf	ECCP3_CallBack@bit_cnt,w
  8195     02CF  2AD1               	goto	u244_24
  8196     02D0                     u244_25:
  8197     02D0  35F8               	lslf	??_ECCP3_CallBack,f
  8198     02D1                     u244_24:
  8199     02D1  0B89               	decfsz	9,f
  8200     02D2  2AD0               	goto	u244_25
  8201     02D3  0878               	movf	??_ECCP3_CallBack,w
  8202     02D4  3AFF               	xorlw	255
  8203     02D5  00F9               	movwf	??_ECCP3_CallBack+1
  8204     02D6  0879               	movf	??_ECCP3_CallBack+1,w
  8205     02D7  05F2               	andwf	_rx_data,f
  8206                           
  8207                           ;tundra.c: 554:         } else {
  8208     02D8  2AE4               	goto	i1l591
  8209     02D9                     i1l2581:
  8210                           
  8211                           ;tundra.c: 556:           rx_data |= (1 << bit_cnt);
  8212     02D9  3001               	movlw	1
  8213     02DA  00F8               	movwf	??_ECCP3_CallBack
  8214     02DB  0A3B               	incf	ECCP3_CallBack@bit_cnt,w
  8215     02DC  2ADE               	goto	u245_24
  8216     02DD                     u245_25:
  8217     02DD  35F8               	lslf	??_ECCP3_CallBack,f
  8218     02DE                     u245_24:
  8219     02DE  0B89               	decfsz	9,f
  8220     02DF  2ADD               	goto	u245_25
  8221     02E0  0878               	movf	??_ECCP3_CallBack,w
  8222     02E1  00F9               	movwf	??_ECCP3_CallBack+1
  8223     02E2  0879               	movf	??_ECCP3_CallBack+1,w
  8224     02E3  04F2               	iorwf	_rx_data,f
  8225     02E4                     i1l591:	
  8226                           ;tundra.c: 557:         }
  8227                           
  8228                           
  8229                           ;tundra.c: 559:         bit_cnt++;
  8230     02E4  3001               	movlw	1
  8231     02E5  00F8               	movwf	??_ECCP3_CallBack
  8232     02E6  0878               	movf	??_ECCP3_CallBack,w
  8233     02E7  07BB               	addwf	ECCP3_CallBack@bit_cnt,f
  8234     02E8                     i1l2583:
  8235     02E8  3008               	movlw	8
  8236     02E9  023B               	subwf	ECCP3_CallBack@bit_cnt,w
  8237     02EA  1C03               	skipc
  8238     02EB  2AED               	goto	u246_21
  8239     02EC  2AEE               	goto	u246_20
  8240     02ED                     u246_21:
  8241     02ED  2AF2               	goto	i1l580
  8242     02EE                     u246_20:
  8243     02EE                     i1l2585:
  8244                           
  8245                           ;tundra.c: 562:           fStart_bit = 0;
  8246     02EE  01B9               	clrf	ECCP3_CallBack@fStart_bit
  8247     02EF                     i1l2587:
  8248                           
  8249                           ;tundra.c: 563:           fReceiver_Byte = 1;
  8250     02EF  3001               	movlw	1
  8251     02F0  00C4               	movwf	_fReceiver_Byte	;volatile
  8252     02F1  2B0A               	goto	i1l597
  8253     02F2                     i1l580:	
  8254                           ;tundra.c: 566:     }
  8255                           
  8256                           
  8257                           ;tundra.c: 568:   }
  8258     02F2  2B0A               	goto	i1l597
  8259     02F3                     i1l2589:
  8260     02F3  3005               	movlw	5
  8261     02F4  0613               	xorwf	19,w	;volatile
  8262     02F5  1D03               	btfss	3,2
  8263     02F6  2AF8               	goto	u247_21
  8264     02F7  2AF9               	goto	u247_20
  8265     02F8                     u247_21:
  8266     02F8  2B0A               	goto	i1l597
  8267     02F9                     u247_20:
  8268     02F9                     i1l2591:
  8269                           
  8270                           ;tundra.c: 571:     rising_edge_time = capturedValue;
  8271     02F9  0877               	movf	ECCP3_CallBack@capturedValue+1,w
  8272     02FA  0020               	movlb	0	; select bank0
  8273     02FB  00AC               	movwf	ECCP3_CallBack@rising_edge_time+1
  8274     02FC  0876               	movf	ECCP3_CallBack@capturedValue,w
  8275     02FD  00AB               	movwf	ECCP3_CallBack@rising_edge_time
  8276                           
  8277                           ;tundra.c: 576:     if (rising_edge_time >= falling_edge_time) {
  8278     02FE  3004               	movlw	4
  8279     02FF  0026               	movlb	6	; select bank6
  8280     0300  0093               	movwf	19	;volatile
  8281     0301                     i1l2593:
  8282                           
  8283                           ;tundra.c: 577:       negative_pulse_width = rising_edge_time - falling_edge_time;
  8284     0301  0020               	movlb	0	; select bank0
  8285     0302  082D               	movf	ECCP3_CallBack@falling_edge_time,w
  8286     0303  022B               	subwf	ECCP3_CallBack@rising_edge_time,w
  8287     0304  00B1               	movwf	ECCP3_CallBack@negative_pulse_width
  8288     0305  082E               	movf	ECCP3_CallBack@falling_edge_time+1,w
  8289     0306  3B2C               	subwfb	ECCP3_CallBack@rising_edge_time+1,w
  8290     0307  00B2               	movwf	ECCP3_CallBack@negative_pulse_width+1
  8291     0308                     i1l2597:	
  8292                           ;tundra.c: 578:     } else {
  8293                           
  8294                           
  8295                           ;tundra.c: 582:     fRise_edge = 1;
  8296     0308  01BA               	clrf	ECCP3_CallBack@fRise_edge
  8297     0309  0ABA               	incf	ECCP3_CallBack@fRise_edge,f
  8298     030A                     i1l597:
  8299     030A  0008               	return
  8300     030B                     __end_of_ECCP3_CallBack:
  8301     007E                     btemp	set	126	;btemp
  8302     007E                     int$flags	set	126
  8303     007E                     wtemp0	set	126
  8304                           
  8305                           	psect	config
  8306                           
  8307                           ;Config register CONFIG1 @ 0x8007
  8308                           ;	Oscillator Selection
  8309                           ;	FOSC = INTOSC, INTOSC oscillator: I/O function on CLKIN pin
  8310                           ;	Watchdog Timer Enable
  8311                           ;	WDTE = OFF, WDT disabled
  8312                           ;	Power-up Timer Enable
  8313                           ;	PWRTE = OFF, PWRT disabled
  8314                           ;	MCLR Pin Function Select
  8315                           ;	MCLRE = ON, MCLR/VPP pin function is MCLR
  8316                           ;	Flash Program Memory Code Protection
  8317                           ;	CP = OFF, Program memory code protection is disabled
  8318                           ;	Data Memory Code Protection
  8319                           ;	CPD = OFF, Data memory code protection is disabled
  8320                           ;	Brown-out Reset Enable
  8321                           ;	BOREN = ON, Brown-out Reset enabled
  8322                           ;	Clock Out Enable
  8323                           ;	CLKOUTEN = OFF, CLKOUT function is disabled. I/O or oscillator function on the CLKOUT 
      +                          pin
  8324                           ;	Internal/External Switchover
  8325                           ;	IESO = ON, Internal/External Switchover mode is enabled
  8326                           ;	Fail-Safe Clock Monitor Enable
  8327                           ;	FCMEN = ON, Fail-Safe Clock Monitor is enabled
  8328     8007                     	org	32775
  8329     8007  3FE4               	dw	16356
  8330                           
  8331                           ;Config register CONFIG2 @ 0x8008
  8332                           ;	Flash Memory Self-Write Protection
  8333                           ;	WRT = OFF, Write protection off
  8334                           ;	Voltage Regulator Capacitor Enable
  8335                           ;	VCAPEN = OFF, All VCAP pin functionality is disabled
  8336                           ;	PLL Enable
  8337                           ;	PLLEN = ON, 4x PLL enabled
  8338                           ;	Stack Overflow/Underflow Reset Enable
  8339                           ;	STVREN = ON, Stack Overflow or Underflow will cause a Reset
  8340                           ;	Brown-out Reset Voltage Selection
  8341                           ;	BORV = LO, Brown-out Reset Voltage (Vbor), low trip point selected.
  8342                           ;	Low-Voltage Programming Enable
  8343                           ;	LVP = OFF, High-voltage on MCLR/VPP must be used for programming
  8344     8008                     	org	32776
  8345     8008  1FFF               	dw	8191

Data Sizes:
    Strings     0
    Constant    72
    Data        1
    BSS         44
    Persistent  32
    Stack       0

Auto Spaces:
    Space          Size  Autos    Used
    COMMON           14      6      12
    BANK0            80      7      46
    BANK1            80      0       0
    BANK2            80      0       0
    BANK3            80      0       0
    BANK4            80      0       0
    BANK5            80      0       0
    BANK6            16      0       0

Pointer List with Targets:

    TMR0_InterruptHandler	PTR FTN()void  size(2) Largest target is 1
		 -> TMR0_10MS_Even(), TMR0_DefaultInterruptHandler(), NULL(), 

    TMR0_SetInterruptHandler@InterruptHandler	PTR FTN()void  size(2) Largest target is 1
		 -> TMR0_10MS_Even(), TMR0_DefaultInterruptHandler(), 


Critical Paths under _main in COMMON

    None.

Critical Paths under _INTERRUPT_InterruptManager in COMMON

    _INTERRUPT_InterruptManager->_ECCP3_CaptureISR
    _TMR0_CallBack->_TMR0_10MS_Even
    _ECCP3_CaptureISR->_ECCP3_CallBack

Critical Paths under _main in BANK0

    _main->_tundra_main
    _LED_control->_LED_control_LoPe
    _LED_control_LoPe->_EPWM1_LoadDutyValue
    _POS_ON_HiPe->_PWM4_LoadDutyValue
    _LOBEAM_ON->_EPWM1_LoadDutyValue
    _LOBEAM_OFF->_EPWM1_LoadDutyValue
    _DRL_POS_OFF_HiPe->_PWM4_LoadDutyValue
    _DRL_ON_HiPe->_PWM4_LoadDutyValue
    _sofaware_initialize->_EPWM1_LoadDutyValue
    _sofaware_initialize->_PWM4_LoadDutyValue
    _Clear_No_Call_Warning->_TMR1_ReadTimer
    _Clear_No_Call_Warning->_TMR1_WriteTimer
    _TMR1_Reload->_TMR1_WriteTimer
    _TMR0_Initialize->_TMR0_SetInterruptHandler

Critical Paths under _INTERRUPT_InterruptManager in BANK0

    None.

Critical Paths under _main in BANK1

    None.

Critical Paths under _INTERRUPT_InterruptManager in BANK1

    None.

Critical Paths under _main in BANK2

    None.

Critical Paths under _INTERRUPT_InterruptManager in BANK2

    None.

Critical Paths under _main in BANK3

    None.

Critical Paths under _INTERRUPT_InterruptManager in BANK3

    None.

Critical Paths under _main in BANK4

    None.

Critical Paths under _INTERRUPT_InterruptManager in BANK4

    None.

Critical Paths under _main in BANK5

    None.

Critical Paths under _INTERRUPT_InterruptManager in BANK5

    None.

Critical Paths under _main in BANK6

    None.

Critical Paths under _INTERRUPT_InterruptManager in BANK6

    None.

Call Graph Tables:

 ---------------------------------------------------------------------------------
 (Depth) Function   	        Calls       Base Space   Used Autos Params    Refs
 ---------------------------------------------------------------------------------
 (0) _main                                                 0     0      0   16299
                  _SYSTEM_Initialize
           _TMR0_SetInterruptHandler
                _sofaware_initialize
                        _tundra_main
 ---------------------------------------------------------------------------------
 (1) _tundra_main                                          2     2      0   12744
                                              5 BANK0      2     2      0
                        _LED_control
                   _analysis_of_data
                _check_lamp_off_even
                  _check_unlock_even
                _receiver_frame_data
                     _to_do_lamp_off
               _to_do_signal_timeout
                       _to_do_unlock
 ---------------------------------------------------------------------------------
 (2) _to_do_unlock                                         0     0      0    2104
                         _HIBEAM_OFF
                         _LOBEAM_OFF
                         _P2_POS2_ON
                        _POS_ON_HiPe
 ---------------------------------------------------------------------------------
 (2) _to_do_signal_timeout                                 0     0      0    2104
                         _HIBEAM_OFF
                          _LOBEAM_ON
                         _P2_POS2_ON
                        _POS_ON_HiPe
 ---------------------------------------------------------------------------------
 (2) _to_do_lamp_off                                       0     0      0    2104
                   _DRL_POS_OFF_HiPe
                         _HIBEAM_OFF
                         _LOBEAM_OFF
                        _P2_POS2_OFF
 ---------------------------------------------------------------------------------
 (2) _receiver_frame_data                                  2     2      0       0
                                              0 BANK0      2     2      0
 ---------------------------------------------------------------------------------
 (2) _check_unlock_even                                    0     0      0       0
 ---------------------------------------------------------------------------------
 (2) _check_lamp_off_even                                  0     0      0       0
 ---------------------------------------------------------------------------------
 (2) _analysis_of_data                                     2     2      0     120
                                              0 BANK0      2     2      0
 ---------------------------------------------------------------------------------
 (2) _LED_control                                          0     0      0    6312
                            _Is_HiPe
                   _LED_control_HiPe
                   _LED_control_LoPe
 ---------------------------------------------------------------------------------
 (3) _LED_control_LoPe                                     1     1      0    1682
                                              4 BANK0      1     1      0
                _EPWM1_LoadDutyValue
                         _HIBEAM_OFF
                          _HIBEAM_ON
                        _P2_POS2_OFF
                         _P2_POS2_ON
 ---------------------------------------------------------------------------------
 (3) _LED_control_HiPe                                     0     0      0    4630
                        _DRL_ON_HiPe
                   _DRL_POS_OFF_HiPe
                         _HIBEAM_OFF
                          _HIBEAM_ON
                         _LOBEAM_OFF
                          _LOBEAM_ON
                        _P2_POS2_OFF
                         _P2_POS2_ON
                        _POS_ON_HiPe
 ---------------------------------------------------------------------------------
 (3) _POS_ON_HiPe                                          0     0      0     422
                 _PWM4_LoadDutyValue
 ---------------------------------------------------------------------------------
 (3) _P2_POS2_ON                                           0     0      0       0
 ---------------------------------------------------------------------------------
 (3) _P2_POS2_OFF                                          0     0      0       0
 ---------------------------------------------------------------------------------
 (3) _LOBEAM_ON                                            0     0      0    1682
                _EPWM1_LoadDutyValue
 ---------------------------------------------------------------------------------
 (3) _LOBEAM_OFF                                           0     0      0    1682
                _EPWM1_LoadDutyValue
 ---------------------------------------------------------------------------------
 (4) _HIBEAM_ON                                            0     0      0       0
 ---------------------------------------------------------------------------------
 (3) _DRL_POS_OFF_HiPe                                     0     0      0     422
                 _PWM4_LoadDutyValue
 ---------------------------------------------------------------------------------
 (4) _DRL_ON_HiPe                                          0     0      0     422
                 _PWM4_LoadDutyValue
 ---------------------------------------------------------------------------------
 (3) _Is_HiPe                                              0     0      0       0
 ---------------------------------------------------------------------------------
 (1) _sofaware_initialize                                  0     0      0    3133
              _Clear_No_Call_Warning
                _EPWM1_LoadDutyValue
                         _HIBEAM_OFF
                 _PWM4_LoadDutyValue
 ---------------------------------------------------------------------------------
 (4) _PWM4_LoadDutyValue                                   4     2      2     422
                                              0 BANK0      4     2      2
 ---------------------------------------------------------------------------------
 (3) _HIBEAM_OFF                                           0     0      0       0
 ---------------------------------------------------------------------------------
 (4) _EPWM1_LoadDutyValue                                  4     2      2    1682
                                              0 BANK0      4     2      2
 ---------------------------------------------------------------------------------
 (2) _Clear_No_Call_Warning                                1     1      0    1029
                    _PIN_MANAGER_IOC
                     _TMR0_ReadTimer
                        _TMR0_Reload
                    _TMR0_WriteTimer
          _TMR1_CheckGateValueStatus
            _TMR1_HasOverflowOccured
                     _TMR1_ReadTimer
                        _TMR1_Reload
   _TMR1_StartSinglePulseAcquisition
                    _TMR1_StartTimer
                     _TMR1_StopTimer
                    _TMR1_WriteTimer
            _TMR2_HasOverflowOccured
            _TMR2_LoadPeriodRegister
                     _TMR2_ReadTimer
                    _TMR2_StartTimer
                     _TMR2_StopTimer
                    _TMR2_WriteTimer
 ---------------------------------------------------------------------------------
 (3) _TMR2_WriteTimer                                      1     1      0      31
                                              0 BANK0      1     1      0
 ---------------------------------------------------------------------------------
 (3) _TMR2_StopTimer                                       0     0      0       0
 ---------------------------------------------------------------------------------
 (3) _TMR2_StartTimer                                      0     0      0       0
 ---------------------------------------------------------------------------------
 (3) _TMR2_ReadTimer                                       1     1      0      10
 ---------------------------------------------------------------------------------
 (3) _TMR2_LoadPeriodRegister                              1     1      0      31
                                              0 BANK0      1     1      0
 ---------------------------------------------------------------------------------
 (3) _TMR2_HasOverflowOccured                              1     1      0      41
                                              0 BANK0      1     1      0
 ---------------------------------------------------------------------------------
 (3) _TMR1_StopTimer                                       0     0      0       0
 ---------------------------------------------------------------------------------
 (3) _TMR1_StartTimer                                      0     0      0       0
 ---------------------------------------------------------------------------------
 (3) _TMR1_StartSinglePulseAcquisition                     0     0      0       0
 ---------------------------------------------------------------------------------
 (3) _TMR1_Reload                                          0     0      0     304
                    _TMR1_WriteTimer
 ---------------------------------------------------------------------------------
 (3) _TMR1_WriteTimer                                      2     0      2     304
                                              0 BANK0      2     0      2
 ---------------------------------------------------------------------------------
 (3) _TMR1_ReadTimer                                       4     4      0      78
                                              0 BANK0      2     2      0
 ---------------------------------------------------------------------------------
 (3) _TMR1_HasOverflowOccured                              0     0      0       0
 ---------------------------------------------------------------------------------
 (3) _TMR1_CheckGateValueStatus                            0     0      0       0
 ---------------------------------------------------------------------------------
 (3) _TMR0_WriteTimer                                      1     1      0      31
                                              0 BANK0      1     1      0
 ---------------------------------------------------------------------------------
 (3) _TMR0_Reload                                          0     0      0       0
 ---------------------------------------------------------------------------------
 (3) _TMR0_ReadTimer                                       1     1      0      10
 ---------------------------------------------------------------------------------
 (3) _PIN_MANAGER_IOC                                      0     0      0       0
 ---------------------------------------------------------------------------------
 (1) _SYSTEM_Initialize                                    0     0      0     211
                   _ECCP3_Initialize
                   _EPWM1_Initialize
              _OSCILLATOR_Initialize
             _PIN_MANAGER_Initialize
                    _PWM4_Initialize
                    _TMR0_Initialize
                    _TMR1_Initialize
                    _TMR2_Initialize
                     _WDT_Initialize
 ---------------------------------------------------------------------------------
 (2) _WDT_Initialize                                       0     0      0       0
 ---------------------------------------------------------------------------------
 (2) _TMR2_Initialize                                      0     0      0       0
 ---------------------------------------------------------------------------------
 (2) _TMR1_Initialize                                      0     0      0       0
 ---------------------------------------------------------------------------------
 (2) _TMR0_Initialize                                      0     0      0     211
           _TMR0_SetInterruptHandler
 ---------------------------------------------------------------------------------
 (1) _TMR0_SetInterruptHandler                             2     0      2     211
                                              0 BANK0      2     0      2
 ---------------------------------------------------------------------------------
 (2) _PWM4_Initialize                                      0     0      0       0
 ---------------------------------------------------------------------------------
 (2) _PIN_MANAGER_Initialize                               0     0      0       0
 ---------------------------------------------------------------------------------
 (2) _OSCILLATOR_Initialize                                0     0      0       0
 ---------------------------------------------------------------------------------
 (2) _EPWM1_Initialize                                     0     0      0       0
 ---------------------------------------------------------------------------------
 (2) _ECCP3_Initialize                                     0     0      0       0
 ---------------------------------------------------------------------------------
 Estimated maximum stack depth 4
 ---------------------------------------------------------------------------------
 (Depth) Function   	        Calls       Base Space   Used Autos Params    Refs
 ---------------------------------------------------------------------------------
 (6) _INTERRUPT_InterruptManager                           0     0      0     167
                   _ECCP3_CaptureISR
                           _TMR0_ISR
 ---------------------------------------------------------------------------------
 (7) _TMR0_ISR                                             0     0      0       0
                      _TMR0_CallBack
 ---------------------------------------------------------------------------------
 (8) _TMR0_CallBack                                        0     0      0       0
                                NULL *
                     _TMR0_10MS_Even *
       _TMR0_DefaultInterruptHandler *
 ---------------------------------------------------------------------------------
 (9) _TMR0_DefaultInterruptHandler                         0     0      0       0
 ---------------------------------------------------------------------------------
 (9) _TMR0_10MS_Even                                       1     1      0       0
                                              0 COMMON     1     1      0
 ---------------------------------------------------------------------------------
 (9) NULL(Fake)                                            0     0      0       0
 ---------------------------------------------------------------------------------
 (7) _ECCP3_CaptureISR                                     2     2      0     167
                                              4 COMMON     2     2      0
                     _ECCP3_CallBack
 ---------------------------------------------------------------------------------
 (8) _ECCP3_CallBack                                       4     2      2     120
                                              0 COMMON     4     2      2
 ---------------------------------------------------------------------------------
 Estimated maximum stack depth 9
 ---------------------------------------------------------------------------------

 Call Graph Graphs:

 _main (ROOT)
   _SYSTEM_Initialize
     _ECCP3_Initialize
     _EPWM1_Initialize
     _OSCILLATOR_Initialize
     _PIN_MANAGER_Initialize
     _PWM4_Initialize
     _TMR0_Initialize
       _TMR0_SetInterruptHandler
     _TMR1_Initialize
     _TMR2_Initialize
     _WDT_Initialize
   _TMR0_SetInterruptHandler
   _sofaware_initialize
     _Clear_No_Call_Warning
       _PIN_MANAGER_IOC
       _TMR0_ReadTimer
       _TMR0_Reload
       _TMR0_WriteTimer
       _TMR1_CheckGateValueStatus
       _TMR1_HasOverflowOccured
       _TMR1_ReadTimer
       _TMR1_Reload
         _TMR1_WriteTimer
       _TMR1_StartSinglePulseAcquisition
       _TMR1_StartTimer
       _TMR1_StopTimer
       _TMR1_WriteTimer
       _TMR2_HasOverflowOccured
       _TMR2_LoadPeriodRegister
       _TMR2_ReadTimer
       _TMR2_StartTimer
       _TMR2_StopTimer
       _TMR2_WriteTimer
     _EPWM1_LoadDutyValue
     _HIBEAM_OFF
     _PWM4_LoadDutyValue
   _tundra_main
     _LED_control
       _Is_HiPe
       _LED_control_HiPe
         _DRL_ON_HiPe
           _PWM4_LoadDutyValue
         _DRL_POS_OFF_HiPe
           _PWM4_LoadDutyValue
         _HIBEAM_OFF
         _HIBEAM_ON
         _LOBEAM_OFF
           _EPWM1_LoadDutyValue
         _LOBEAM_ON
           _EPWM1_LoadDutyValue
         _P2_POS2_OFF
         _P2_POS2_ON
         _POS_ON_HiPe
           _PWM4_LoadDutyValue
       _LED_control_LoPe
         _EPWM1_LoadDutyValue
         _HIBEAM_OFF
         _HIBEAM_ON
         _P2_POS2_OFF
         _P2_POS2_ON
     _analysis_of_data
     _check_lamp_off_even
     _check_unlock_even
     _receiver_frame_data
     _to_do_lamp_off
       _DRL_POS_OFF_HiPe
       _HIBEAM_OFF
       _LOBEAM_OFF
       _P2_POS2_OFF
     _to_do_signal_timeout
       _HIBEAM_OFF
       _LOBEAM_ON
       _P2_POS2_ON
       _POS_ON_HiPe
     _to_do_unlock
       _HIBEAM_OFF
       _LOBEAM_OFF
       _P2_POS2_ON
       _POS_ON_HiPe

 _INTERRUPT_InterruptManager (ROOT)
   _ECCP3_CaptureISR
     _ECCP3_CallBack
   _TMR0_ISR
     _TMR0_CallBack
       NULL(Fake) *
       _TMR0_10MS_Even *
       _TMR0_DefaultInterruptHandler *

 Address spaces:
Name               Size   Autos  Total    Cost      Usage
BIGRAM             1F0      0       0       0        0.0%
EEDATA             100      0       0       0        0.0%
NULL                 0      0       0       0        0.0%
CODE                 0      0       0       0        0.0%
BITCOMMON            E      0       0       1        0.0%
BITSFR0              0      0       0       1        0.0%
SFR0                 0      0       0       1        0.0%
COMMON               E      6       C       2       85.7%
BITSFR1              0      0       0       2        0.0%
SFR1                 0      0       0       2        0.0%
BITSFR2              0      0       0       3        0.0%
SFR2                 0      0       0       3        0.0%
STACK                0      0       0       3        0.0%
BITSFR3              0      0       0       4        0.0%
SFR3                 0      0       0       4        0.0%
ABS                  0      0      3A       4        0.0%
BITBANK0            50      0       0       5        0.0%
BITSFR4              0      0       0       5        0.0%
SFR4                 0      0       0       5        0.0%
BANK0               50      7      2E       6       57.5%
BITSFR5              0      0       0       6        0.0%
SFR5                 0      0       0       6        0.0%
BITBANK1            50      0       0       7        0.0%
BITSFR6              0      0       0       7        0.0%
SFR6                 0      0       0       7        0.0%
BANK1               50      0       0       8        0.0%
BITSFR7              0      0       0       8        0.0%
SFR7                 0      0       0       8        0.0%
BITBANK2            50      0       0       9        0.0%
BITSFR8              0      0       0       9        0.0%
SFR8                 0      0       0       9        0.0%
BANK2               50      0       0      10        0.0%
BITSFR9              0      0       0      10        0.0%
SFR9                 0      0       0      10        0.0%
BITBANK3            50      0       0      11        0.0%
BITSFR10             0      0       0      11        0.0%
SFR10                0      0       0      11        0.0%
BANK3               50      0       0      12        0.0%
BITSFR11             0      0       0      12        0.0%
SFR11                0      0       0      12        0.0%
BITBANK4            50      0       0      13        0.0%
BITSFR12             0      0       0      13        0.0%
SFR12                0      0       0      13        0.0%
BANK4               50      0       0      14        0.0%
BITSFR13             0      0       0      14        0.0%
SFR13                0      0       0      14        0.0%
BITBANK5            50      0       0      15        0.0%
BITSFR14             0      0       0      15        0.0%
SFR14                0      0       0      15        0.0%
BANK5               50      0       0      16        0.0%
BITSFR15             0      0       0      16        0.0%
SFR15                0      0       0      16        0.0%
BITBANK6            10      0       0      17        0.0%
BITSFR16             0      0       0      17        0.0%
SFR16                0      0       0      17        0.0%
BANK6               10      0       0      18        0.0%
BITSFR17             0      0       0      18        0.0%
SFR17                0      0       0      18        0.0%
BITSFR18             0      0       0      19        0.0%
SFR18                0      0       0      19        0.0%
DATA                 0      0      3A      19        0.0%
BITSFR19             0      0       0      20        0.0%
SFR19                0      0       0      20        0.0%
BITSFR20             0      0       0      21        0.0%
SFR20                0      0       0      21        0.0%
BITSFR21             0      0       0      22        0.0%
SFR21                0      0       0      22        0.0%
BITSFR22             0      0       0      23        0.0%
SFR22                0      0       0      23        0.0%
BITSFR23             0      0       0      24        0.0%
SFR23                0      0       0      24        0.0%
BITSFR24             0      0       0      25        0.0%
SFR24                0      0       0      25        0.0%
BITSFR25             0      0       0      26        0.0%
SFR25                0      0       0      26        0.0%
BITSFR26             0      0       0      27        0.0%
SFR26                0      0       0      27        0.0%
BITSFR27             0      0       0      28        0.0%
SFR27                0      0       0      28        0.0%
BITSFR28             0      0       0      29        0.0%
SFR28                0      0       0      29        0.0%
BITSFR29             0      0       0      30        0.0%
SFR29                0      0       0      30        0.0%
BITSFR30             0      0       0      31        0.0%
SFR30                0      0       0      31        0.0%
BITSFR31             0      0       0      32        0.0%
SFR31                0      0       0      32        0.0%


Microchip Technology PIC Macro Assembler V2.46 build 20240104201356 
Symbol Table                                                                                   Tue Feb 10 13:36:46 2026

               __end_of_FALLING_EDGE_TRIG 068F                               ?_LOBEAM_OFF 0076  
                                      _D2 0074                                        _D3 0045  
                                      l31 04B9                                        l40 0664  
                                      l34 05DD                                        l37 05E2  
                                      l80 05B0                                        l83 067F  
                                      _CS 03CD                                        l94 0548  
                                      l86 067C                                        l89 0647  
                                      l97 061A                           _timer0ReloadVal 0075  
                                     l100 0682                                       l103 0688  
                                     l200 0676                                       l106 0685  
                                     l203 0673                                       l140 0696  
                                     l212 0657                                       l206 0679  
                                     l231 05F6                                       l216 05D6  
                                     l137 0465                                       l209 0652  
                                     l162 068B                                       l251 05BD  
                                     l500 0136                                       l181 064D  
                                     l165 065C                                       l254 049D  
                                     l502 014D                                       l159 0515  
                                     l503 0186                                       l168 0660  
                                     l600 04D3                                       l504 0164  
                                     l265 0623                                       l521 021D  
                                     l506 0175                                       l530 025B  
                                     l514 01A9                                       l442 03CC  
                                     l523 022A                                       l443 038B  
                                     l268 0481                                       l516 0205  
                                     l444 0390                                       l197 063B  
                                     l509 0186                                       l525 0237  
                                     l533 0268                                       l445 0395  
                                     l613 042A                                       l438 0695  
                                     l518 0204                                       l446 039A  
                                     l462 0576                                       l527 024B  
                                     l447 039F                                       l455 0526  
                                     l615 0446                                       l632 0633  
                                     l480 007D                                       l641 0667  
                                     l473 0558                                       l465 0567  
                                     l650 0670                                       l626 0611  
                                     l490 00E1                                       l482 0097  
                                     l635 0608                                       l459 0537  
                                     l539 0378                                       l644 066A  
                                     l492 00F2                                       l484 00A8  
                                     l468 0585                                       l629 05FF  
                                     l654 05EC                                       l638 062B  
                                     l494 0103                                       l486 00BC  
                                     l478 0063                                       l647 066D  
                            ?_DRL_ON_HiPe 0076                                       l496 0114  
                                     l488 00D0                                       l498 0125  
                                     _PR2 001B                           _timer1ReloadVal 0037  
                        ??_to_do_lamp_off 004A                           _TMR2_Initialize 0634  
                         _PWM4_Initialize 061B                                       wreg 0009  
           TMR2_HasOverflowOccured@status 0046                         ?_LED_control_HiPe 0076  
                       ?_LED_control_LoPe 0076                  __end_of_ECCP3_Initialize 05F7  
                  ?_Clear_No_Call_Warning 0076                                      l3001 05E3  
                                    l3003 05E9                                      l3021 004D  
                                    l3013 003E                                      l3031 005F  
                                    l3023 0051                                      l3015 0042  
                                    l3009 05EB                                      l3201 0179  
                                    l3121 00FE                                      l3105 00E5  
                                    l3041 0076                                      l3033 0067  
                                    l3025 0055                                      l3017 0046  
                                    l3203 017D                                      l3131 010B  
                                    l3107 00E9                                      l3051 008D  
                                    l3043 0079                                      l3035 006B  
                                    l3027 0059                                      l3019 0049  
                                    l3205 0181                                      l3141 0118  
                                    l3133 010F                                      l3117 00F6  
                                    l3109 00ED                                      l3061 00A3  
                                    l3053 0090                                      l3045 0081  
                                    l3037 006F                                      l3029 005C  
                                    l3221 0196                                      l3213 0187  
                                    l3311 0447                                      l3143 011C  
                                    l3119 00FA                                      l3071 00B0  
                                    l3055 0093                                      l3047 0085  
                                    l3039 0073                                      l3303 025F  
                                    l3231 01B1                                      l3223 019A  
                                    l3215 018B                                      l3321 0452  
                                    l3313 0449                                      l3401 050D  
                                    l3153 0129                                      l3145 0120  
                                    l3129 0107                                      l3081 00C0  
                                    l3073 00B4                                      l3057 009B  
                                    l3049 0089                                      l3305 0263  
                                    l3241 01CD                                      l3233 01B5  
                                    l3225 019E                                      l3217 018F  
                                    l3331 045D                                      l3323 0454  
                                    l3315 044B                                      l3403 050E  
                                    l3171 0146                                      l3155 012D  
                                    l3083 00C4                                      l3075 00B8  
                                    l3059 009F                                      l3243 01D0  
                                    l3235 01BB                                      l3227 01A1  
                                    l3219 0192                                      l3341 05DB  
                                    l3333 0461                                      l3325 0456  
                                    l3317 044D                                      l3405 0695  
                                    l3181 0159                                      l3173 0149  
                                    l3165 013A                                      l3157 0131  
                                    l3093 00D4                                      l3085 00C8  
                                    l3069 00AC                                      l3261 0221  
                                    l3253 0209                                      l3245 01E1  
                                    l3237 01BE                                      l3229 01AD  
                                    l3501 0527                                      l3351 05B7  
                                    l3335 0463                                      l3327 0458  
                                    l3319 044F                                      l3343 0661  
                                    l3191 016C                                      l3183 015D  
                                    l3167 013E                                      l3095 00D8  
                                    l3087 00CC                                      l3271 0232  
                                    l3263 0225                                      l3255 020D  
                                    l3247 01E9                                      l3239 01C7  
                                    l3503 052E                                      l3511 056E  
                                    l3353 05B9                                      l3345 05B1  
                                    l3337 05D7                                      l3329 045B  
                                    l3361 061E                                      l3193 0170  
                                    l3185 0160                                      l3177 0151  
                                    l3169 0142                                      l3097 00DC  
                                    l3281 0243                                      l3257 0211  
                                    l3249 01FA                                      l3441 0379  
                                    l3505 0534                                      l3513 0571  
                                    l3521 0562                                      l3355 05BA  
                                    l3347 05B4                                      l3339 05DA  
                                    l3363 061F                                      l3371 0638  
                                    l3611 04C8                                      l3179 0155  
                                    l3259 0214                                      l3451 0385  
                                    l3443 037E                                      l3507 0536  
                                    l3531 0583                                      l3515 0574  
                                    l3523 0565                                      l3381 05F2  
                                    l3357 05BB                                      l3349 05B5  
                                    l3365 0620                                      l3373 0639  
                                    l3613 04CB                                      l3189 0168  
                                    l3277 023B                                      l3269 022E  
                                    l3533 0549                                      l3461 0399  
                                    l3453 0386                                      l3445 037F  
                                    l3525 0577                                      l3509 0568  
                                    l3517 0559                                      l3621 0416  
                                    l3383 05F4                                      l3375 05ED  
                                    l3359 061B                                      l3391 05A9  
                                    l3367 0634                                      l3607 049E  
                                    l3615 04D0                                      l3295 024F  
                                    l3279 023F                                      l3535 0551  
                                    l3471 03B3                                      l3463 039E  
                                    l3455 038A                                      l3447 037F  
                                    l3551 0321                                      l3543 0312  
                                    l3527 057A                                      l3519 055F  
                                    l3623 041A                                      l3377 05F0  
                                    l3393 0502                                      l3385 05A4  
                                    l3369 0637                                      l2921 0538  
                                    l3609 04BA                                      l3297 0253  
                                    l3537 0555                                      l3481 03BE  
                                    l3465 03A3                                      l3457 038F  
                                    l3553 0327                                      l3545 0314  
                                    l3529 057D                                      l3625 041E  
                                    l3633 042C                                      l3617 040D  
                                    l3641 04FA                                      l3379 05F1  
                                    l3395 0507                                      l3387 05A7  
                                    l2923 053D                                      l2931 0544  
                                    l3299 0257                                      l3491 03CA  
                                    l3483 03C4                                      l3475 03B5  
                                    l3467 03A4                                      l3459 0394  
                                    l3571 0339                                      l3563 0333  
                                    l3555 0329                                      l3547 031A  
                                    l3539 030B                                      l3627 0422  
                                    l3619 0413                                      l3643 04FB  
                                    l3397 050A                                      l3389 05A8  
                                    l2933 0546                                      l2925 053E  
                                    l2917 0482                                      l2941 05F7  
                                    l3477 03BB                                      l3469 03AD  
                                    l3493 0516                                      l3557 032E  
                                    l3549 031E                                      l3629 0426  
                                    l3645 04FC                                      l3399 050C  
                                    l2927 0540                                      l2919 0466  
                                    l2951 066B                                      l2943 0624  
                                    l2935 0665                                      l3487 03C7  
                                    l3495 051D                                      l3591 0348  
                                    l3583 0342                                      l3575 033C  
                                    l3567 0336                                      l3559 0330  
                                    l3639 04EC                                      l2929 0542  
                                    l2961 0612                                      l2953 067D  
                                    l2937 066E                                      l2945 0668  
                                    l3489 03C9                                      l3497 0523  
                                    l2963 0680                                      l2955 067A  
                                    l2947 062C                                      l2939 0600  
                                    l3499 0525                                      l3587 0345  
                                    l3579 033F                                      l2973 0648  
                                    l2981 065D                                      l2965 0686  
                                    l2957 0642                                      l2949 0609  
                                    l2975 0689                                      l2983 0674  
                                    l2991 0650                                      l3599 034D  
                                    l2969 0683                                      l2993 0655  
                                    l2985 0671                                      l3697 0435  
                                    l2979 065A                                      l2995 05CB  
                                    l2987 0677                                      l3699 0355  
                                    l2997 05D0                                      l2999 05D5  
                      ??_LED_control_HiPe 004A                                      u3000 00C8  
                                    u3001 00C7                                      u3010 00CC  
                                    u3011 00CB                                      u3100 00F6  
                                    u3020 00D4                                      u3101 00F5  
                                    u3021 00D3                                      _LATA 010C  
                                    u3110 00FA                                      u3030 00D8  
                                    _LATB 010D                                      u3111 00F9  
                                    u3031 00D7                                      _LATC 010E  
                                    u3200 0120                                      u3120 00FE  
                                    u3040 00DC                                      u3201 011F  
                                    u3121 00FD                                      u3041 00DB  
                                    _LATE 0110                                      u3210 0124  
                                    u3130 0102                                      u3050 00E0  
                                    u3211 0123                                      u3131 0101  
                                    u3051 00DF                                      u3300 0151  
                                    u3220 0129                                      u3140 0107  
                                    u3060 00E5                                      u3301 0150  
                                    u3221 0128                                      u3141 0106  
                                    u3061 00E4                                      u3310 0155  
                                    u3230 012D                                      u3150 010B  
                                    u3070 00E9                                      u3311 0154  
                                    u3231 012C                                      u3151 010A  
                                    u3071 00E8                                      u3400 0181  
                                    u3320 0159                                      u3240 0131  
                                    u3160 010F                                      u3080 00ED  
                                    u3401 0180                                      u3321 0158  
                                    u3241 0130                                      u3161 010E  
                                    u3081 00EC                                      u3410 0185  
                                    u3330 015D                                      u3250 0135  
                                    u3170 0113                                      u3090 00F1  
                                    u3411 0184                                      u3331 015C  
                                    u3251 0134                                      u3171 0112  
                                    u3091 00F0                                      u3340 0168  
                                    u3260 013A                                      u3180 0118  
                                    u3500 01CD                                      u3420 018B  
                                    u3341 0167                                      u3261 0139  
                                    u3181 0117                                      u3501 01CC  
                                    u3421 018A                                      u3350 016C  
                                    u3270 013E                                      u3190 011C  
                                    u3510 0209                                      u3430 0196  
                                    u3351 016B                                      u3271 013D  
                                    u3191 011B                                      u3511 0208  
                                    u3431 0195                                      u3360 0170  
                                    u3280 0142                                      u2800 0055  
                                    u3600 023B                                      u3520 020D  
                                    u3440 019A                                      u3361 016F  
                                    u3281 0141                                      u2801 0054  
                                    u3601 023A                                      u3521 020C  
                                    u3441 0199                                      u3370 0174  
                                    u3290 0146                                      u2810 0059  
                                    u3610 023F                                      u3530 0211  
                                    u3450 019E                                      u3371 0173  
                                    u3291 0145                                      u2811 0058  
                                    u3611 023E                                      u3531 0210  
                                    u3451 019D                                      u3700 05E2  
                                    u2740 053D                                      u3380 0179  
                                    u2900 009B                                      u2820 0067  
                                    u3620 0243                                      u3540 0221  
                                    u3460 01AD                                      u3701 05E1  
                                    u2741 053C                                      u2725 0493  
                                    u3381 0178                                      u2901 009A  
                                    u2821 0066                                      u3621 0242  
                                    u3541 0220                                      u3461 01AC  
                                    u2750 05D5                                      u3390 017D  
                                    u2910 009F                                      u2830 006B  
                                    u3630 024A                                      u3550 0225  
                                    u3470 01B1                                      u3710 0384  
                                    u2751 05D4                                      u2735 0477  
                                    u3391 017C                                      u2911 009E  
                                    u2831 006A                                      u3631 0249  
                                    u3551 0224                                      u3471 01B0  
                                    u3711 0383                                      u2760 05E9  
                                    u2920 00A3                                      u2840 006F  
                                    u3640 024F                                      u3560 0229  
                                    u3480 01B5                                      u3800 03C4  
                                    u3720 038A                                      u2761 05E8  
                                    u2921 00A2                                      u2841 006E  
                                    u3641 024E                                      u3561 0228  
                                    u3481 01B4                                      u3801 03C3  
                                    u3721 0389                                      u2930 00A7  
                                    u2850 0073                                      u2770 0042  
                                    u3650 0253                                      u3570 022E  
                                    u3490 01BB                                      u3730 038F  
                                    u3810 051D                        ??_LED_control_LoPe 004A  
                                    u2931 00A6                                      u2851 0072  
                                    u2771 0041                                      u3651 0252  
                                    u3571 022D                                      u3491 01BA  
                                    u3731 038E                                      u3811 051C  
                                    u2940 00AC                                      u2860 0081  
                                    u2780 004D                                      u3660 0257  
                                    u3580 0232                                      u3740 0394  
                                    u3820 0523                                      u2941 00AB  
                                    u2861 0080                                      u2781 004C  
                                    u3661 0256                                      u3581 0231  
                                    u3741 0393                                      u3821 0522  
                                    u2950 00B0                                      u2870 0085  
                                    u2790 0051                                      u3670 025F  
                                    u3590 0236                                      u3750 0399  
                                    u3830 052E                                      u2951 00AF  
                                    u2871 0084                                      u2791 0050  
                                    u3671 025E                                      u3591 0235  
                                    u3751 0398                                      u3831 052D  
                                    u2960 00B4                                      u2880 0089  
                                    u3680 0263                                      u3760 039E  
                                    u3840 0534                                      u2961 00B3  
                                    u2881 0088                                      u3681 0262  
                                    u3761 039D                                      u3841 0533  
                                    u2970 00B8                                      u2890 008D  
                                    u3690 0267                                      u3850 0551  
                                    u3770 03A3                                      u2971 00B7  
                                    u2891 008C                                      u3691 0266  
                                    u3907 01ED                                      u3851 0550  
                                    u3771 03A2                                      i1l60 0024  
                                    u2980 00C0                                      u3780 03B3  
                                    u3860 0311                                      i1l61 0024  
                                    u2981 00BF                                      u3917 01FE  
                                    u3781 03B2                                      u3861 0310  
                                    u2990 00C4                                      u3790 03BB  
                                    u3870 031A                                      i1l55 0012  
                                    u2991 00C3                                      u3791 03BA  
                                    u3871 0319                                      u3880 0327  
                                    u3881 0326                                      u3897 01DC  
                 _TMR1_HasOverflowOccured 0683                                      _PLLR 04D6  
                                    _TMR0 0015                                      _TMR2 001A  
                                    _WPUB 020D                                      _WPUE 0210  
                       ?_analysis_of_data 0076                                      _main 04EC  
                                    fsr0h 0005                                      indf0 0000  
                                    fsr0l 0004                                      btemp 007E  
                    analysis_of_data@crc8 0046                        ??_analysis_of_data 0046  
                                    start 0026                    ??_to_do_signal_timeout 004A  
                   ??_EPWM1_LoadDutyValue 0048                              ?_LED_control 0076  
                         __end_of_Is_HiPe 05ED     ECCP3_CallBack@negative_pulse_width_us 0070  
                             _tundra_main 040D                   __end_of_TMR0_Initialize 0516  
          ??_TMR0_DefaultInterruptHandler 0076             __end_of_OSCILLATOR_Initialize 05E3  
             __end_of_receiver_frame_data 0379                                     ?_main 0076  
                         _TMR1_StartTimer 067D                                     _BIT_7 068D  
                                   _T1CON 0018                                     _T2CON 001C  
                                   i1l234 05A3                                     i1l174 04EB  
                                   i1l184 0697                                     i1l178 05CA  
                                   i1l604 0594                                     i1l580 02F2  
                         _TMR0_WriteTimer 0658                                     i1l582 0285  
                                   i1l591 02E4                                     i1l583 02A6  
                                   i1l586 02B7                                     i1l597 030A  
                      _PWM4_LoadDutyValue 0466                                     _TMR1H 0017  
                                   _TMR1L 0016                                     _TRISA 008C  
                                   _TRISB 008D                                     _TRISC 008E  
                                   _TRISE 0090                 ?_TMR0_SetInterruptHandler 0046  
                        __end_of_TMR0_ISR 04EC                   __end_of_PIN_MANAGER_IOC 0697  
                          _WDT_Initialize 0661                       ?_PWM4_LoadDutyValue 0046  
                 __end_of_TMR1_Initialize 05B1                                     pclath 000A  
                                   status 0003                                     wtemp0 007E  
                         _TMR2_StartTimer 0674                           _TMR1_WriteTimer 0538  
                       __end_of_HIBEAM_ON 066E                           __initialization 0028  
                            __end_of_main 0502                      ??_PWM4_LoadDutyValue 0048  
                 __end_of_PWM4_Initialize 0624                   __end_of_TMR2_Initialize 063C  
             ?_INTERRUPT_InterruptManager 0076                                    ??_main 004D  
         ECCP3_CallBack@falling_edge_time 002D                           _TMR2_WriteTimer 064E  
                       __end_of_LOBEAM_ON 0609                         __end_of_LIGHT_PID 0695  
                        _DRL_POS_OFF_HiPe 062C                    __end_of_WDT_Initialize 0665  
               ??_TMR1_HasOverflowOccured 0046                                    _CCPR1H 0292  
                                  _CCPR3H 0312                                    _CCPR1L 0291  
                                  _CCPR4H 0319                                    _CCPR3L 0311  
                                  _CCPR4L 0318                                    _APFCON 011D  
                                  _ANSELA 018C                                    _ANSELB 018D  
                                  _BORCON 0116                                    _T1GCON 0019  
                 TMR1_WriteTimer@timerVal 0046                                    i1l2521 0593  
                                  i1l2515 0586                                    i1l2517 058B  
                                  i1l2551 0278                                    i1l2519 0591  
                                  i1l2543 05BE                                    i1l2561 029D  
                                  i1l2553 027E                                    i1l2545 05C5  
                                  i1l2571 02BC                                    i1l2563 02A3  
                                  i1l2547 0269                                    i1l2811 0595  
                                  i1l2803 04D4                                    i1l2581 02D9  
                                  i1l2573 02C2                                    i1l2565 02A8  
                                  i1l2557 027F                                    i1l2549 0270  
                                  i1l2813 0597                                    i1l2805 04D5  
                                  i1l2591 02F9                                    i1l2583 02E8  
                                  i1l2575 02C4                                    i1l2567 02AE  
                                  i1l2815 059C                                    i1l2807 04E5  
                     _sofaware_initialize 04BA                                    i1l2593 0301  
                                  i1l2585 02EE                                    i1l2577 02C6  
                                  i1l2569 02B3                                    i1l2809 04E8  
                                  i1l2587 02EF                                    i1l2579 02CC  
                                  i1l2851 000E                                    i1l2597 0308  
                                  i1l2589 02F3                                    i1l2853 0016  
                                  i1l2855 001B                                    i1l2847 0006  
                                  i1l2857 0020                                    i1l2849 000A  
                                  u240_20 02AE                                    u240_21 02AD  
                                  u241_20 02BC                                    u241_21 02BB  
                                  u242_20 02C2                                    u242_21 02C1  
                                  u243_20 02CC                                    u235_20 0591  
                                  u243_21 02CB                                    u235_21 0590  
                                  u236_20 05C5                                    u236_21 05C4  
                                  u244_24 02D1                                    u244_25 02D0  
                                  u237_20 0270                                    u237_21 026F  
                                  u245_24 02DE                                    u245_25 02DD  
                                  u246_20 02EE                                    u238_20 027E  
                                  u270_20 001B                                    u246_21 02ED  
                                  u238_21 027D                                    u270_21 001A  
                                  u247_20 02F9                                    u239_20 02A3  
                                  u271_20 0020                                    u247_21 02F8  
                                  u239_21 02A2                                    u271_21 001F  
                                  u266_20 04E5                                    u266_21 04E4  
                                  u267_20 000A                                    u267_21 0009  
                                  u268_20 000E                                    u268_21 000D  
                                  u269_20 0016                                    u269_21 0015  
                                  _OSCCON 0099                                    _WDTCON 0097  
                               ??_Is_HiPe 0046                            _TMR0_10MS_Even 0586  
                            _CCPTMRS0bits 029E                              ?_TMR0_Reload 0076  
          ECCP3_CallBack@rising_edge_time 002B                   __end_of_TMR1_StartTimer 0680  
                            ?_TMR1_Reload 0076                                    _csFlag 0073  
                 __end_of_TMR0_WriteTimer 065D                      ?_sofaware_initialize 0076  
                        ?_TMR0_Initialize 0076                              ??_HIBEAM_OFF 0046  
                              _eLamp_even 0040                                    _rx_buf 0020  
                              _fLamp_Conf 003F                  ?_TMR2_HasOverflowOccured 0076  
                       ?_ECCP3_CaptureISR 0076                              ?_POS_ON_HiPe 0076  
                         ?_WDT_Initialize 0076                        ??_ECCP3_CaptureISR 007A  
                   __end_of_TMR0_CallBack 05CB                   __end_of_TMR2_StartTimer 0677  
TMR0_SetInterruptHandler@InterruptHandler 0046                          ?_PIN_MANAGER_IOC 0076  
                   ECCP3_CallBack@diff_us 003C                   __end_of_TMR1_WriteTimer 0549  
                   ECCP3_CallBack@bit_cnt 003B                          ?_TMR1_Initialize 0076  
                       _SYSTEM_Initialize 049E                   __end_of__initialization 003A  
                  __end_of_TMR0_10MS_Even 0595                        ?_SYSTEM_Initialize 0076  
             __end_of_check_lamp_off_even 0538                        __end_of_HIBEAM_OFF 0671  
                           __end_of_BIT_7 068E                              ??_P2_POS2_ON 0046  
                       ?_EPWM1_Initialize 0076                            __pcstackCOMMON 0076  
                            __pidataBANK0 068C                       ??_SYSTEM_Initialize 0048  
                               ?_TMR0_ISR 0076                              ??_LOBEAM_OFF 004A  
                 __end_of_TMR2_WriteTimer 0653                        ??_EPWM1_Initialize 0046  
                   ??_sofaware_initialize 004A                          ?_TMR2_Initialize 0076  
                        ?_PWM4_Initialize 0076                                __end_of_CS 040D  
             PWM4_LoadDutyValue@dutyValue 0046                            _OPTION_REGbits 0095  
                   TMR0_ISR@CountCallBack 0033                        __end_of_BUF_LENGTH 0691  
                 ??_Clear_No_Call_Warning 0048                        __end_of_P2_POS2_ON 0668  
               __end_of_SYSTEM_Initialize 04BA                         ?_ECCP3_Initialize 0076  
                              __pbssBANK0 0020                   _TMR2_LoadPeriodRegister 0653  
                      ??_ECCP3_Initialize 0046                        __end_of_LOBEAM_OFF 062C  
                         ?_TMR0_10MS_Even 0076                                __pmaintext 04EC  
        __end_of_TMR0_SetInterruptHandler 064E                              ?_tundra_main 0076  
                        ?_TMR1_StartTimer 0076                                ??_TMR0_ISR 0077  
                              __pintentry 0004                          ?_TMR0_WriteTimer 0076  
         __end_of_TMR2_HasOverflowOccured 05D7                                   _CCP1CON 0293  
                                 _CCP3CON 0313                                   _CCP4CON 031A  
                                 _ECCP1AS 0295                                   _OSCTUNE 0098  
                                 _PWM1CON 0294                          ?_TMR2_StartTimer 0076  
                        ?_TMR1_WriteTimer 0046               __end_of_EPWM1_LoadDutyValue 049E  
      ECCP3_CallBack@negative_pulse_width 0031                                   _Is_HiPe 05E3  
                      __end_of_UART_LEVEL 0692                  __end_of_DRL_POS_OFF_HiPe 0634  
                               _HIBEAM_ON 066B                          ?_TMR2_WriteTimer 0076  
                TMR1_ReadTimer@readValLow 0047                            _ECCP3_CallBack 0269  
                                 __ptext1 040D                                   __ptext2 0559  
                                 __ptext3 0568                                   __ptext4 0577  
                                 __ptext5 030B                                   __ptext6 0516  
                                 __ptext7 0527                                   __ptext8 0379  
                                 __ptext9 0549                 TMR1_ReadTimer@readValHigh 0046  
                               _T1CONbits 0018                     _OSCILLATOR_Initialize 05D7  
                               _T2CONbits 001C                    ECCP3_CaptureISR@module 007A  
                ??_PIN_MANAGER_Initialize 0046                                   _rx_data 0072  
                               _LOBEAM_ON 0600                                 _LIGHT_PID 0694  
               ??_TMR2_LoadPeriodRegister 0046                                   clrloop0 063D  
                    end_of_initialization 003A                             ?_to_do_unlock 0076  
                       _check_unlock_even 0516                       __end_of_DATA_LENGTH 0694  
                              ?_HIBEAM_ON 0076                        ?_check_unlock_even 0076  
                  __end_of_ECCP3_CallBack 030B                            _TMR0_ReadTimer 0689  
                        ??_WDT_Initialize 0046                  _TMR0_SetInterruptHandler 0648  
                               _PORTBbits 000D                       ??_check_unlock_even 0046  
              analysis_of_data@temp_index 0047                            _TMR1_ReadTimer 0642  
                              ?_LOBEAM_ON 0076                            _TMR2_ReadTimer 0677  
                 TMR2_WriteTimer@timerVal 0046                            ??_to_do_unlock 004A  
                           ??_P2_POS2_OFF 0046                 __end_of_check_unlock_even 0527  
                        _LED_control_HiPe 003E                          _RISING_EDGE_TRIG 068F  
                        _LED_control_LoPe 0187                    __end_of_TMR0_ReadTimer 068C  
                         ?_ECCP3_CallBack 0076                          _analysis_of_data 0379  
                          _TMR1_StopTimer 067A                    ?_OSCILLATOR_Initialize 0076  
                  __end_of_TMR1_ReadTimer 0648                             ??_DRL_ON_HiPe 004A  
                ?_TMR1_HasOverflowOccured 0076          TMR2_LoadPeriodRegister@periodVal 0046  
                     start_initialization 0028                            _TMR2_StopTimer 0671  
                  __end_of_TMR2_ReadTimer 067A             __end_of_Clear_No_Call_Warning 0696  
                        ??_TMR0_10MS_Even 0076              EPWM1_LoadDutyValue@dutyValue 0046  
                             _DATA_LENGTH 0693               __end_of_sofaware_initialize 04D4  
                           ??_LED_control 004B                ?_TMR1_CheckGateValueStatus 0076  
                         ?_TMR0_ReadTimer 0076                               ??_HIBEAM_ON 0046  
                               _fFrame_OK 0043                    __end_of_TMR1_StopTimer 067D  
                     __end_of_P2_POS2_OFF 066B                               __pdataBANK0 004D  
__end_of_TMR1_StartSinglePulseAcquisition 0683        ??_TMR1_StartSinglePulseAcquisition 0046  
       ?_TMR1_StartSinglePulseAcquisition 0076          _TMR1_StartSinglePulseAcquisition 0680  
                         ?_TMR1_ReadTimer 0076                    __end_of_TMR2_StopTimer 0674  
                             __pbssCOMMON 0070                                 ___latbits 0002  
                           __pcstackBANK0 0046                               ??_LOBEAM_ON 004A  
                         ?_TMR2_ReadTimer 0076                       __end_of_DRL_ON_HiPe 0612  
                          _to_do_lamp_off 0577                                  ?_Is_HiPe 0076  
                   _TMR0_InterruptHandler 0035                    _PIN_MANAGER_Initialize 0447  
                       ?_DRL_POS_OFF_HiPe 0076                       __end_of_LOGIC_LEVEL 0693  
                     _receiver_frame_data 030B         __end_of_TMR1_CheckGateValueStatus 0689  
                      ??_DRL_POS_OFF_HiPe 004A           __end_of_TMR1_HasOverflowOccured 0686  
                         ?_TMR1_StopTimer 0076                       __end_of_LED_control 0559  
            ??_INTERRUPT_InterruptManager 007C                      __end_of_to_do_unlock 0568  
       receiver_frame_data@eReceiver_step 003D                           ?_TMR2_StopTimer 0076  
            __end_of_to_do_signal_timeout 0577                      ?_receiver_frame_data 0076  
             _positive_pulse_width_us_max 0041               _positive_pulse_width_us_min 004D  
                           _TMR0_CallBack 05BE                    __end_of_to_do_lamp_off 0586  
                 _TMR2_HasOverflowOccured 05CB                         ??_TMR0_Initialize 0048  
      ECCP3_CallBack@positive_pulse_width 002F                          _ECCP3_CaptureISR 0595  
                                _LATAbits 010C                                  _LATCbits 010E  
                               clear_ram0 063C                                  _PIE3bits 0093  
                             _P2_POS2_OFF 0668                ??_TMR0_SetInterruptHandler 0048  
                                _PIR1bits 0011                                  _PIR3bits 0013  
                           ??_TMR0_Reload 0046                             ??_TMR1_Reload 0048  
                                _TMR0_ISR 04D4                                  _PSTR1CON 0296  
                       ??_PIN_MANAGER_IOC 0046                         ??_TMR1_Initialize 0046  
                             _DRL_ON_HiPe 0609     ECCP3_CallBack@positive_pulse_width_us 0071  
                           _fLamp_RL_Side 003E                             ??_POS_ON_HiPe 004A  
                        _EPWM1_Initialize 05B1                     ??_receiver_frame_data 0046  
                __end_of_LED_control_HiPe 0187                  __end_of_RISING_EDGE_TRIG 0690  
                __end_of_LED_control_LoPe 0269                            ?_TMR0_CallBack 0076  
                         ?_to_do_lamp_off 0076                  __end_of_analysis_of_data 03CD  
                       ??_TMR2_Initialize 0046                         ??_PWM4_Initialize 0046  
                             _LOGIC_LEVEL 0692                          ??_ECCP3_CallBack 0078  
                             _LED_control 0549                __end_of_PWM4_LoadDutyValue 0482  
                        _ECCP3_Initialize 05ED                   ??_OSCILLATOR_Initialize 0046  
             ECCP3_CallBack@capturedValue 0076                                _HIBEAM_OFF 066E  
                     __end_of_TMR0_Reload 0661                       __end_of_TMR1_Reload 061B  
                ?_TMR2_LoadPeriodRegister 0076                 ??_TMR2_HasOverflowOccured 0046  
                                __ptext10 0187                                  __ptext11 003E  
                                __ptext20 05E3                                  __ptext12 05F7  
                                __ptext21 04BA                                  __ptext13 0665  
                              _T1GCONbits 0019                                  __ptext30 0653  
                                __ptext22 0466                                  __ptext14 0668  
                                __ptext31 05CB                                  __ptext23 066E  
                                __ptext15 0600                                  __ptext40 0658  
                                __ptext32 067A                                  __ptext24 0482  
                                __ptext16 0624                                  __ptext41 065D  
                                __ptext33 067D                                  __ptext25 0695  
                                __ptext17 066B                                  __ptext50 061B  
                                __ptext42 0689                                  __ptext34 0680  
                                __ptext26 064E                                  __ptext18 062C  
                                __ptext51 0447                                  __ptext43 0696  
                                __ptext35 0612                                  __ptext27 0671  
                                __ptext19 0609                                  __ptext60 0595  
                                __ptext52 05D7                                  __ptext44 049E  
                                __ptext36 0538                                  __ptext28 0674  
                                __ptext61 0269                                  __ptext53 05B1  
                                __ptext45 0661                                  __ptext37 0642  
                                __ptext29 0677                                  __ptext54 05ED  
                                __ptext46 0634                                  __ptext38 0683  
                                __ptext47 05A4                                  __ptext39 0686  
                                __ptext56 04D4                                  __ptext48 0502  
                                __ptext57 05BE                                  __ptext49 0648  
                                __ptext58 0586                                  __ptext59 0697  
                     _check_lamp_off_even 0527                         ??_TMR1_StartTimer 0046  
                 TMR0_WriteTimer@timerVal 0046                       __end_of_POS_ON_HiPe 0600  
                       ??_TMR0_WriteTimer 0046                                _BUF_LENGTH 0690  
                        ??_TMR0_ReadTimer 0046      __end_of_TMR0_DefaultInterruptHandler 0698  
            _TMR0_DefaultInterruptHandler 0697                  ECCP3_CallBack@fRise_edge 003A  
                              _P2_POS2_ON 0665                             ??_tundra_main 004B  
                    _to_do_signal_timeout 0568               ??_TMR1_CheckGateValueStatus 0046  
                        ??_TMR1_ReadTimer 0046                                  int$flags 007E  
                    ?_check_lamp_off_even 0076                                _LOBEAM_OFF 0624  
                       ??_TMR2_StartTimer 0046        __end_of_INTERRUPT_InterruptManager 0026  
              _INTERRUPT_InterruptManager 0004                         ??_TMR1_WriteTimer 0048  
                ECCP3_CallBack@fStart_bit 0039                          ??_TMR2_ReadTimer 0046  
                              _INTCONbits 000B                           ??_TMR0_CallBack 0077  
                     _Communication_timer 0042                                  intlevel1 0000  
                   _Clear_No_Call_Warning 0695                         ??_TMR2_WriteTimer 0046  
                 ?_PIN_MANAGER_Initialize 0076                              _to_do_unlock 0559  
                        ??_TMR1_StopTimer 0046             ?_TMR0_DefaultInterruptHandler 0076  
                   ?_to_do_signal_timeout 0076                               _TMR0_Reload 065D  
                   ??_check_lamp_off_even 0046                               _TMR1_Reload 0612  
                       _FALLING_EDGE_TRIG 068E                          ??_TMR2_StopTimer 0046  
         __end_of_TMR2_LoadPeriodRegister 0658                               ?_HIBEAM_OFF 0076  
                           __pstringtext1 03CD                             __pstringtext2 068D  
                           __pstringtext3 068E                             __pstringtext4 068F  
                           __pstringtext5 0690                             __pstringtext6 0691  
                           __pstringtext7 0692                             __pstringtext8 0693  
                           __pstringtext9 0694                  __end_of_ECCP3_CaptureISR 05A4  
                     __end_of_tundra_main 0447                            _fReceiver_Byte 0044  
                              _UART_LEVEL 0691                                _OPTION_REG 0095  
                         _TMR0_Initialize 0502                               _POS_ON_HiPe 05F7  
                     _EPWM1_LoadDutyValue 0482                 _TMR1_CheckGateValueStatus 0686  
          __end_of_PIN_MANAGER_Initialize 0466                           _PIN_MANAGER_IOC 0696  
                            ?_P2_POS2_OFF 0076                           _TMR1_Initialize 05A4  
                             ?_P2_POS2_ON 0076                  __end_of_EPWM1_Initialize 05BE  
                    ?_EPWM1_LoadDutyValue 0046  
